TN:
SF:/usr/include/c++/11/bits/stl_vector.h
FN:97,_ZNSt12_Vector_baseISt3setIiSt4lessIiESaIiEESaIS4_EE17_Vector_impl_dataC2Ev
FNDA:5,_ZNSt12_Vector_baseISt3setIiSt4lessIiESaIiEESaIS4_EE17_Vector_impl_dataC2Ev
FN:131,_ZNSt12_Vector_baseISt3setIiSt4lessIiESaIiEESaIS4_EE12_Vector_implC2Ev
FNDA:4,_ZNSt12_Vector_baseISt3setIiSt4lessIiESaIiEESaIS4_EE12_Vector_implC2Ev
FN:136,_ZNSt12_Vector_baseISt3setIiSt4lessIiESaIiEESaIS4_EE12_Vector_implC2ERKS5_
FNDA:1,_ZNSt12_Vector_baseISt3setIiSt4lessIiESaIiEESaIS4_EE12_Vector_implC2ERKS5_
FN:276,_ZNSt12_Vector_baseISt3setIiSt4lessIiESaIiEESaIS4_EE19_M_get_Tp_allocatorEv
FNDA:14,_ZNSt12_Vector_baseISt3setIiSt4lessIiESaIiEESaIS4_EE19_M_get_Tp_allocatorEv
FN:280,_ZNKSt12_Vector_baseISt3setIiSt4lessIiESaIiEESaIS4_EE19_M_get_Tp_allocatorEv
FNDA:17,_ZNKSt12_Vector_baseISt3setIiSt4lessIiESaIiEESaIS4_EE19_M_get_Tp_allocatorEv
FN:288,_ZNSt12_Vector_baseISt3setIiSt4lessIiESaIiEESaIS4_EEC2Ev
FNDA:4,_ZNSt12_Vector_baseISt3setIiSt4lessIiESaIiEESaIS4_EEC2Ev
FN:303,_ZNSt12_Vector_baseISt3setIiSt4lessIiESaIiEESaIS4_EEC2EmRKS5_
FNDA:1,_ZNSt12_Vector_baseISt3setIiSt4lessIiESaIiEESaIS4_EEC2EmRKS5_
FN:333,_ZNSt12_Vector_baseISt3setIiSt4lessIiESaIiEESaIS4_EED2Ev
FNDA:5,_ZNSt12_Vector_baseISt3setIiSt4lessIiESaIiEESaIS4_EED2Ev
FN:343,_ZNSt12_Vector_baseISt3setIiSt4lessIiESaIiEESaIS4_EE11_M_allocateEm
FNDA:5,_ZNSt12_Vector_baseISt3setIiSt4lessIiESaIiEESaIS4_EE11_M_allocateEm
FN:350,_ZNSt12_Vector_baseISt3setIiSt4lessIiESaIiEESaIS4_EE13_M_deallocateEPS4_m
FNDA:9,_ZNSt12_Vector_baseISt3setIiSt4lessIiESaIiEESaIS4_EE13_M_deallocateEPS4_m
FN:359,_ZNSt12_Vector_baseISt3setIiSt4lessIiESaIiEESaIS4_EE17_M_create_storageEm
FNDA:1,_ZNSt12_Vector_baseISt3setIiSt4lessIiESaIiEESaIS4_EE17_M_create_storageEm
FN:431,_ZNSt6vectorISt3setIiSt4lessIiESaIiEESaIS4_EE19_S_nothrow_relocateESt17integral_constantIbLb1EE
FNDA:4,_ZNSt6vectorISt3setIiSt4lessIiESaIiEESaIS4_EE19_S_nothrow_relocateESt17integral_constantIbLb1EE
FN:444,_ZNSt6vectorISt3setIiSt4lessIiESaIiEESaIS4_EE15_S_use_relocateEv
FNDA:4,_ZNSt6vectorISt3setIiSt4lessIiESaIiEESaIS4_EE15_S_use_relocateEv
FN:453,_ZNSt6vectorISt3setIiSt4lessIiESaIiEESaIS4_EE14_S_do_relocateEPS4_S7_S7_RS5_St17integral_constantIbLb1EE
FNDA:4,_ZNSt6vectorISt3setIiSt4lessIiESaIiEESaIS4_EE14_S_do_relocateEPS4_S7_S7_RS5_St17integral_constantIbLb1EE
FN:465,_ZNSt6vectorISt3setIiSt4lessIiESaIiEESaIS4_EE11_S_relocateEPS4_S7_S7_RS5_
FNDA:4,_ZNSt6vectorISt3setIiSt4lessIiESaIiEESaIS4_EE11_S_relocateEPS4_S7_S7_RS5_
FN:487,_ZNSt6vectorISt3setIiSt4lessIiESaIiEESaIS4_EEC2Ev
FNDA:4,_ZNSt6vectorISt3setIiSt4lessIiESaIiEESaIS4_EEC2Ev
FN:553,_ZNSt6vectorISt3setIiSt4lessIiESaIiEESaIS4_EEC2ERKS6_
FNDA:1,_ZNSt6vectorISt3setIiSt4lessIiESaIiEESaIS4_EEC2ERKS6_
FN:678,_ZNSt6vectorISt3setIiSt4lessIiESaIiEESaIS4_EED2Ev
FNDA:5,_ZNSt6vectorISt3setIiSt4lessIiESaIiEESaIS4_EED2Ev
FN:820,_ZNKSt6vectorISt3setIiSt4lessIiESaIiEESaIS4_EE5beginEv
FNDA:1,_ZNKSt6vectorISt3setIiSt4lessIiESaIiEESaIS4_EE5beginEv
FN:838,_ZNKSt6vectorISt3setIiSt4lessIiESaIiEESaIS4_EE3endEv
FNDA:1,_ZNKSt6vectorISt3setIiSt4lessIiESaIiEESaIS4_EE3endEv
FN:918,_ZNKSt6vectorISt3setIiSt4lessIiESaIiEESaIS4_EE4sizeEv
FNDA:30,_ZNKSt6vectorISt3setIiSt4lessIiESaIiEESaIS4_EE4sizeEv
FN:923,_ZNKSt6vectorISt3setIiSt4lessIiESaIiEESaIS4_EE8max_sizeEv
FNDA:16,_ZNKSt6vectorISt3setIiSt4lessIiESaIiEESaIS4_EE8max_sizeEv
FN:937,_ZNSt6vectorISt3setIiSt4lessIiESaIiEESaIS4_EE6resizeEm
FNDA:4,_ZNSt6vectorISt3setIiSt4lessIiESaIiEESaIS4_EE6resizeEm
FN:1043,_ZNSt6vectorISt3setIiSt4lessIiESaIiEESaIS4_EEixEm
FNDA:70,_ZNSt6vectorISt3setIiSt4lessIiESaIiEESaIS4_EEixEm
FN:1756,_ZNKSt6vectorISt3setIiSt4lessIiESaIiEESaIS4_EE12_M_check_lenEmPKc
FNDA:4,_ZNKSt6vectorISt3setIiSt4lessIiESaIiEESaIS4_EE12_M_check_lenEmPKc
FN:1776,_ZNSt6vectorISt3setIiSt4lessIiESaIiEESaIS4_EE11_S_max_sizeERKS5_
FNDA:16,_ZNSt6vectorISt3setIiSt4lessIiESaIiEESaIS4_EE11_S_max_sizeERKS5_
FN:1792,_ZNSt6vectorISt3setIiSt4lessIiESaIiEESaIS4_EE15_M_erase_at_endEPS4_
FNDA:0,_ZNSt6vectorISt3setIiSt4lessIiESaIiEESaIS4_EE15_M_erase_at_endEPS4_
DA:97,5
DA:98,5
DA:99,5
DA:131,4
DA:133,4
DA:134,4
DA:136,1
DA:137,1
DA:138,1
DA:276,14
DA:277,14
DA:280,17
DA:281,17
DA:288,4
DA:303,1
DA:304,1
DA:305,1
DA:333,5
DA:335,5
DA:336,5
DA:337,5
DA:343,5
DA:346,5
DA:350,9
DA:353,9
DA:354,5
DA:355,9
DA:359,1
DA:361,1
DA:362,1
DA:363,1
DA:364,1
DA:431,4
DA:436,4
DA:444,4
DA:449,4
DA:453,4
DA:456,4
DA:465,4
DA:469,4
DA:487,4
DA:553,1
DA:555,1
DA:557,1
DA:558,1
DA:560,1
DA:561,1
DA:678,5
DA:680,5
DA:681,5
DA:683,5
DA:820,1
DA:821,1
DA:838,1
DA:839,1
DA:918,30
DA:919,30
DA:923,16
DA:924,16
DA:937,4
DA:939,4
DA:940,4
DA:941,0
DA:942,0
DA:943,4
DA:1043,70
DA:1046,70
DA:1756,4
DA:1758,4
DA:1759,0
DA:1761,4
DA:1762,4
DA:1776,16
DA:1781,16
DA:1783,16
DA:1784,16
DA:1792,0
DA:1794,0
DA:1796,0
DA:1797,0
DA:1798,0
DA:1801,0
end_of_record
SF:/usr/include/c++/11/bits/stl_function.h
FN:399,_ZNKSt4lessIiEclERKiS2_
FNDA:76,_ZNKSt4lessIiEclERKiS2_
FN:399,_ZNKSt4lessINSt7__cxx1112basic_stringIcSt11char_traitsIcESaIcEEEEclERKS5_S8_
FNDA:28,_ZNKSt4lessINSt7__cxx1112basic_stringIcSt11char_traitsIcESaIcEEEEclERKS5_S8_
FN:1154,_ZNKSt9_IdentityIiEclERi
FNDA:8,_ZNKSt9_IdentityIiEclERi
FN:1158,_ZNKSt9_IdentityIiEclERKi
FNDA:90,_ZNKSt9_IdentityIiEclERKi
FN:1174,_ZNKSt10_Select1stISt4pairIKNSt7__cxx1112basic_stringIcSt11char_traitsIcESaIcEEES0_IiiEEEclERKS9_
FNDA:35,_ZNKSt10_Select1stISt4pairIKNSt7__cxx1112basic_stringIcSt11char_traitsIcESaIcEEES0_IiiEEEclERKS9_
DA:399,76
DA:400,76
DA:399,28
DA:400,28
DA:1154,8
DA:1155,8
DA:1158,90
DA:1159,90
DA:1174,35
DA:1175,35
end_of_record
SF:/usr/include/c++/11/ext/new_allocator.h
FN:79,_ZN9__gnu_cxx13new_allocatorIcEC2Ev
FNDA:0,_ZN9__gnu_cxx13new_allocatorIcEC2Ev
FN:79,_ZN9__gnu_cxx13new_allocatorISt13_Rb_tree_nodeISt4pairIKNSt7__cxx1112basic_stringIcSt11char_traitsIcESaIcEEES2_IiiEEEEC2Ev
FNDA:4,_ZN9__gnu_cxx13new_allocatorISt13_Rb_tree_nodeISt4pairIKNSt7__cxx1112basic_stringIcSt11char_traitsIcESaIcEEES2_IiiEEEEC2Ev
FN:79,_ZN9__gnu_cxx13new_allocatorImEC2Ev
FNDA:4,_ZN9__gnu_cxx13new_allocatorImEC2Ev
FN:79,_ZN9__gnu_cxx13new_allocatorISt3setIiSt4lessIiESaIiEEEC2Ev
FNDA:4,_ZN9__gnu_cxx13new_allocatorISt3setIiSt4lessIiESaIiEEEC2Ev
FN:79,_ZN9__gnu_cxx13new_allocatorISt13_Rb_tree_nodeIiEEC2Ev
FNDA:25,_ZN9__gnu_cxx13new_allocatorISt13_Rb_tree_nodeIiEEC2Ev
FN:82,_ZN9__gnu_cxx13new_allocatorISt3setIiSt4lessIiESaIiEEEC2ERKS6_
FNDA:2,_ZN9__gnu_cxx13new_allocatorISt3setIiSt4lessIiESaIiEEEC2ERKS6_
FN:82,_ZN9__gnu_cxx13new_allocatorISt13_Rb_tree_nodeIiEEC2ERKS3_
FNDA:12,_ZN9__gnu_cxx13new_allocatorISt13_Rb_tree_nodeIiEEC2ERKS3_
FN:82,_ZN9__gnu_cxx13new_allocatorIcEC2ERKS1_
FNDA:0,_ZN9__gnu_cxx13new_allocatorIcEC2ERKS1_
FN:89,_ZN9__gnu_cxx13new_allocatorImED2Ev
FNDA:4,_ZN9__gnu_cxx13new_allocatorImED2Ev
FN:89,_ZN9__gnu_cxx13new_allocatorISt13_Rb_tree_nodeISt4pairIKNSt7__cxx1112basic_stringIcSt11char_traitsIcESaIcEEES2_IiiEEEED2Ev
FNDA:4,_ZN9__gnu_cxx13new_allocatorISt13_Rb_tree_nodeISt4pairIKNSt7__cxx1112basic_stringIcSt11char_traitsIcESaIcEEES2_IiiEEEED2Ev
FN:89,_ZN9__gnu_cxx13new_allocatorISt13_Rb_tree_nodeIiEED2Ev
FNDA:37,_ZN9__gnu_cxx13new_allocatorISt13_Rb_tree_nodeIiEED2Ev
FN:89,_ZN9__gnu_cxx13new_allocatorIcED2Ev
FNDA:0,_ZN9__gnu_cxx13new_allocatorIcED2Ev
FN:89,_ZN9__gnu_cxx13new_allocatorISt3setIiSt4lessIiESaIiEEED2Ev
FNDA:6,_ZN9__gnu_cxx13new_allocatorISt3setIiSt4lessIiESaIiEEED2Ev
FN:103,_ZN9__gnu_cxx13new_allocatorISt13_Rb_tree_nodeISt4pairIKNSt7__cxx1112basic_stringIcSt11char_traitsIcESaIcEEES2_IiiEEEE8allocateEmPKv
FNDA:5,_ZN9__gnu_cxx13new_allocatorISt13_Rb_tree_nodeISt4pairIKNSt7__cxx1112basic_stringIcSt11char_traitsIcESaIcEEES2_IiiEEEE8allocateEmPKv
FN:103,_ZN9__gnu_cxx13new_allocatorISt3setIiSt4lessIiESaIiEEE8allocateEmPKv
FNDA:5,_ZN9__gnu_cxx13new_allocatorISt3setIiSt4lessIiESaIiEEE8allocateEmPKv
FN:103,_ZN9__gnu_cxx13new_allocatorImE8allocateEmPKv
FNDA:4,_ZN9__gnu_cxx13new_allocatorImE8allocateEmPKv
FN:103,_ZN9__gnu_cxx13new_allocatorISt13_Rb_tree_nodeIiEE8allocateEmPKv
FNDA:19,_ZN9__gnu_cxx13new_allocatorISt13_Rb_tree_nodeIiEE8allocateEmPKv
FN:132,_ZN9__gnu_cxx13new_allocatorISt3setIiSt4lessIiESaIiEEE10deallocateEPS5_m
FNDA:5,_ZN9__gnu_cxx13new_allocatorISt3setIiSt4lessIiESaIiEEE10deallocateEPS5_m
FN:132,_ZN9__gnu_cxx13new_allocatorISt13_Rb_tree_nodeISt4pairIKNSt7__cxx1112basic_stringIcSt11char_traitsIcESaIcEEES2_IiiEEEE10deallocateEPSC_m
FNDA:5,_ZN9__gnu_cxx13new_allocatorISt13_Rb_tree_nodeISt4pairIKNSt7__cxx1112basic_stringIcSt11char_traitsIcESaIcEEES2_IiiEEEE10deallocateEPSC_m
FN:132,_ZN9__gnu_cxx13new_allocatorImE10deallocateEPmm
FNDA:4,_ZN9__gnu_cxx13new_allocatorImE10deallocateEPmm
FN:132,_ZN9__gnu_cxx13new_allocatorISt13_Rb_tree_nodeIiEE10deallocateEPS2_m
FNDA:19,_ZN9__gnu_cxx13new_allocatorISt13_Rb_tree_nodeIiEE10deallocateEPS2_m
FN:154,_ZNK9__gnu_cxx13new_allocatorISt3setIiSt4lessIiESaIiEEE8max_sizeEv
FNDA:16,_ZNK9__gnu_cxx13new_allocatorISt3setIiSt4lessIiESaIiEEE8max_sizeEv
FN:154,_ZNK9__gnu_cxx13new_allocatorImE8max_sizeEv
FNDA:8,_ZNK9__gnu_cxx13new_allocatorImE8max_sizeEv
FN:160,_ZN9__gnu_cxx13new_allocatorISt13_Rb_tree_nodeISt4pairIKNSt7__cxx1112basic_stringIcSt11char_traitsIcESaIcEEES2_IiiEEEE9constructISB_JRKSt21piecewise_construct_tSt5tupleIJRS9_EESI_IJEEEEEvPT_DpOT0_
FNDA:5,_ZN9__gnu_cxx13new_allocatorISt13_Rb_tree_nodeISt4pairIKNSt7__cxx1112basic_stringIcSt11char_traitsIcESaIcEEES2_IiiEEEE9constructISB_JRKSt21piecewise_construct_tSt5tupleIJRS9_EESI_IJEEEEEvPT_DpOT0_
FN:160,_ZN9__gnu_cxx13new_allocatorISt13_Rb_tree_nodeIiEE9constructIiJRKiEEEvPT_DpOT0_
FNDA:12,_ZN9__gnu_cxx13new_allocatorISt13_Rb_tree_nodeIiEE9constructIiJRKiEEEvPT_DpOT0_
FN:160,_ZN9__gnu_cxx13new_allocatorISt13_Rb_tree_nodeIiEE9constructIiJiEEEvPT_DpOT0_
FNDA:7,_ZN9__gnu_cxx13new_allocatorISt13_Rb_tree_nodeIiEE9constructIiJiEEEvPT_DpOT0_
FN:160,_ZN9__gnu_cxx13new_allocatorISt3setIiSt4lessIiESaIiEEE9constructIS5_JS5_EEEvPT_DpOT0_
FNDA:0,_ZN9__gnu_cxx13new_allocatorISt3setIiSt4lessIiESaIiEEE9constructIS5_JS5_EEEvPT_DpOT0_
FN:166,_ZN9__gnu_cxx13new_allocatorISt13_Rb_tree_nodeISt4pairIKNSt7__cxx1112basic_stringIcSt11char_traitsIcESaIcEEES2_IiiEEEE7destroyISB_EEvPT_
FNDA:5,_ZN9__gnu_cxx13new_allocatorISt13_Rb_tree_nodeISt4pairIKNSt7__cxx1112basic_stringIcSt11char_traitsIcESaIcEEES2_IiiEEEE7destroyISB_EEvPT_
FN:166,_ZN9__gnu_cxx13new_allocatorISt13_Rb_tree_nodeIiEE7destroyIiEEvPT_
FNDA:19,_ZN9__gnu_cxx13new_allocatorISt13_Rb_tree_nodeIiEE7destroyIiEEvPT_
FN:166,_ZN9__gnu_cxx13new_allocatorISt3setIiSt4lessIiESaIiEEE7destroyIS5_EEvPT_
FNDA:0,_ZN9__gnu_cxx13new_allocatorISt3setIiSt4lessIiESaIiEEE7destroyIS5_EEvPT_
FN:197,_ZNK9__gnu_cxx13new_allocatorISt3setIiSt4lessIiESaIiEEE11_M_max_sizeEv
FNDA:21,_ZNK9__gnu_cxx13new_allocatorISt3setIiSt4lessIiESaIiEEE11_M_max_sizeEv
FN:197,_ZNK9__gnu_cxx13new_allocatorImE11_M_max_sizeEv
FNDA:12,_ZNK9__gnu_cxx13new_allocatorImE11_M_max_sizeEv
FN:197,_ZNK9__gnu_cxx13new_allocatorISt13_Rb_tree_nodeISt4pairIKNSt7__cxx1112basic_stringIcSt11char_traitsIcESaIcEEES2_IiiEEEE11_M_max_sizeEv
FNDA:5,_ZNK9__gnu_cxx13new_allocatorISt13_Rb_tree_nodeISt4pairIKNSt7__cxx1112basic_stringIcSt11char_traitsIcESaIcEEES2_IiiEEEE11_M_max_sizeEv
FN:197,_ZNK9__gnu_cxx13new_allocatorISt13_Rb_tree_nodeIiEE11_M_max_sizeEv
FNDA:19,_ZNK9__gnu_cxx13new_allocatorISt13_Rb_tree_nodeIiEE11_M_max_sizeEv
DA:79,25
DA:79,4
DA:79,4
DA:79,4
DA:79,0
DA:82,12
DA:82,2
DA:82,0
DA:89,37
DA:89,4
DA:89,4
DA:89,6
DA:89,0
DA:103,19
DA:111,19
DA:115,0
DA:116,0
DA:117,0
DA:127,19
DA:103,5
DA:111,5
DA:115,0
DA:116,0
DA:117,0
DA:127,5
DA:103,4
DA:111,4
DA:115,0
DA:116,0
DA:117,0
DA:127,4
DA:103,5
DA:111,5
DA:115,0
DA:116,0
DA:117,0
DA:127,5
DA:132,19
DA:145,19
DA:150,19
DA:132,5
DA:145,5
DA:150,5
DA:132,4
DA:145,4
DA:150,4
DA:132,5
DA:145,5
DA:150,5
DA:154,8
DA:155,8
DA:154,16
DA:155,16
DA:160,0
DA:162,0
DA:160,7
DA:162,7
DA:160,12
DA:162,12
DA:160,5
DA:162,5
DA:166,0
DA:168,0
DA:166,19
DA:168,19
DA:166,5
DA:168,5
DA:197,19
DA:200,19
DA:197,5
DA:200,5
DA:197,12
DA:200,12
DA:197,21
DA:200,21
end_of_record
SF:/usr/include/c++/11/bits/basic_string.h
FN:251,_ZNSt7__cxx1112basic_stringIcSt11char_traitsIcESaIcEE16_M_construct_auxIPcEEvT_S7_St12__false_type
FNDA:0,_ZNSt7__cxx1112basic_stringIcSt11char_traitsIcESaIcEE16_M_construct_auxIPcEEvT_S7_St12__false_type
FN:271,_ZNSt7__cxx1112basic_stringIcSt11char_traitsIcESaIcEE12_M_constructIPcEEvT_S7_
FNDA:0,_ZNSt7__cxx1112basic_stringIcSt11char_traitsIcESaIcEE12_M_constructIPcEEvT_S7_
FN:6340,_ZStltIcSt11char_traitsIcESaIcEEbRKNSt7__cxx1112basic_stringIT_T0_T1_EESA_
FNDA:28,_ZStltIcSt11char_traitsIcESaIcEEbRKNSt7__cxx1112basic_stringIT_T0_T1_EESA_
DA:251,0
DA:255,0
DA:256,0
DA:271,0
DA:274,0
DA:275,0
DA:6340,28
DA:6343,28
end_of_record
SF:/usr/include/c++/11/bits/stl_bvector.h
FN:77,_ZNSt14_Bit_referenceC2EPmm
FNDA:288,_ZNSt14_Bit_referenceC2EPmm
FN:86,_ZNKSt14_Bit_referencecvbEv
FNDA:192,_ZNKSt14_Bit_referencecvbEv
FN:90,_ZNSt14_Bit_referenceaSEb
FNDA:96,_ZNSt14_Bit_referenceaSEb
FN:100,_ZNSt14_Bit_referenceaSERKS_
FNDA:0,_ZNSt14_Bit_referenceaSERKS_
FN:148,_ZNSt18_Bit_iterator_baseC2EPmj
FNDA:219,_ZNSt18_Bit_iterator_baseC2EPmj
FN:152,_ZNSt18_Bit_iterator_base10_M_bump_upEv
FNDA:192,_ZNSt18_Bit_iterator_base10_M_bump_upEv
FN:162,_ZNSt18_Bit_iterator_base12_M_bump_downEv
FNDA:0,_ZNSt18_Bit_iterator_base12_M_bump_downEv
FN:172,_ZNSt18_Bit_iterator_base7_M_incrEl
FNDA:108,_ZNSt18_Bit_iterator_base7_M_incrEl
FN:186,_ZSteqRKSt18_Bit_iterator_baseS1_
FNDA:195,_ZSteqRKSt18_Bit_iterator_baseS1_
FN:207,_ZStneRKSt18_Bit_iterator_baseS1_
FNDA:195,_ZStneRKSt18_Bit_iterator_baseS1_
FN:224,_ZStmiRKSt18_Bit_iterator_baseS1_
FNDA:44,_ZStmiRKSt18_Bit_iterator_baseS1_
FN:241,_ZNSt13_Bit_iteratorC2Ev
FNDA:16,_ZNSt13_Bit_iteratorC2Ev
FN:243,_ZNSt13_Bit_iteratorC2EPmj
FNDA:119,_ZNSt13_Bit_iteratorC2EPmj
FN:251,_ZNKSt13_Bit_iteratordeEv
FNDA:288,_ZNKSt13_Bit_iteratordeEv
FN:255,_ZNSt13_Bit_iteratorppEv
FNDA:192,_ZNSt13_Bit_iteratorppEv
FN:270,_ZNSt13_Bit_iteratormmEv
FNDA:0,_ZNSt13_Bit_iteratormmEv
FN:285,_ZNSt13_Bit_iteratorpLEl
FNDA:108,_ZNSt13_Bit_iteratorpLEl
FN:299,_ZNKSt13_Bit_iteratorixEl
FNDA:96,_ZNKSt13_Bit_iteratorixEl
FN:303,_ZStplRKSt13_Bit_iteratorl
FNDA:108,_ZStplRKSt13_Bit_iteratorl
FN:336,_ZNSt19_Bit_const_iteratorC2EPmj
FNDA:44,_ZNSt19_Bit_const_iteratorC2EPmj
FN:339,_ZNSt19_Bit_const_iteratorC2ERKSt13_Bit_iterator
FNDA:40,_ZNSt19_Bit_const_iteratorC2ERKSt13_Bit_iterator
FN:343,_ZNKSt19_Bit_const_iterator13_M_const_castEv
FNDA:4,_ZNKSt19_Bit_const_iterator13_M_const_castEv
FN:347,_ZNKSt19_Bit_const_iteratordeEv
FNDA:0,_ZNKSt19_Bit_const_iteratordeEv
FN:351,_ZNSt19_Bit_const_iteratorppEv
FNDA:0,_ZNSt19_Bit_const_iteratorppEv
FN:443,_ZNSt13_Bvector_baseISaIbEE18_Bvector_impl_dataC2Ev
FNDA:8,_ZNSt13_Bvector_baseISaIbEE18_Bvector_impl_dataC2Ev
FN:465,_ZNSt13_Bvector_baseISaIbEE18_Bvector_impl_data8_M_resetEv
FNDA:4,_ZNSt13_Bvector_baseISaIbEE18_Bvector_impl_data8_M_resetEv
FN:480,_ZNSt13_Bvector_baseISaIbEE13_Bvector_implC2Ev
FNDA:4,_ZNSt13_Bvector_baseISaIbEE13_Bvector_implC2Ev
FN:502,_ZNKSt13_Bvector_baseISaIbEE13_Bvector_impl11_M_end_addrEv
FNDA:8,_ZNKSt13_Bvector_baseISaIbEE13_Bvector_impl11_M_end_addrEv
FN:518,_ZNKSt13_Bvector_baseISaIbEE20_M_get_Bit_allocatorEv
FNDA:8,_ZNKSt13_Bvector_baseISaIbEE20_M_get_Bit_allocatorEv
FN:526,_ZNSt13_Bvector_baseISaIbEEC2Ev
FNDA:4,_ZNSt13_Bvector_baseISaIbEEC2Ev
FN:542,_ZNSt13_Bvector_baseISaIbEED2Ev
FNDA:4,_ZNSt13_Bvector_baseISaIbEED2Ev
FN:549,_ZNSt13_Bvector_baseISaIbEE11_M_allocateEm
FNDA:4,_ZNSt13_Bvector_baseISaIbEE11_M_allocateEm
FN:553,_ZNSt13_Bvector_baseISaIbEE13_M_deallocateEv
FNDA:8,_ZNSt13_Bvector_baseISaIbEE13_M_deallocateEv
FN:572,_ZNSt13_Bvector_baseISaIbEE8_S_nwordEm
FNDA:8,_ZNSt13_Bvector_baseISaIbEE8_S_nwordEm
FN:632,_ZNSt6vectorIbSaIbEEC2Ev
FNDA:4,_ZNSt6vectorIbSaIbEEC2Ev
FN:733,_ZNSt6vectorIbSaIbEED2Ev
FNDA:4,_ZNSt6vectorIbSaIbEED2Ev
FN:831,_ZNSt6vectorIbSaIbEE5beginEv
FNDA:107,_ZNSt6vectorIbSaIbEE5beginEv
FN:835,_ZNKSt6vectorIbSaIbEE5beginEv
FNDA:32,_ZNKSt6vectorIbSaIbEE5beginEv
FN:839,_ZNSt6vectorIbSaIbEE3endEv
FNDA:11,_ZNSt6vectorIbSaIbEE3endEv
FN:843,_ZNKSt6vectorIbSaIbEE3endEv
FNDA:28,_ZNKSt6vectorIbSaIbEE3endEv
FN:864,_ZNKSt6vectorIbSaIbEE6cbeginEv
FNDA:4,_ZNKSt6vectorIbSaIbEE6cbeginEv
FN:881,_ZNKSt6vectorIbSaIbEE4sizeEv
FNDA:28,_ZNKSt6vectorIbSaIbEE4sizeEv
FN:885,_ZNKSt6vectorIbSaIbEE8max_sizeEv
FNDA:8,_ZNKSt6vectorIbSaIbEE8max_sizeEv
FN:897,_ZNKSt6vectorIbSaIbEE8capacityEv
FNDA:4,_ZNKSt6vectorIbSaIbEE8capacityEv
FN:906,_ZNSt6vectorIbSaIbEEixEm
FNDA:96,_ZNSt6vectorIbSaIbEEixEm
FN:1039,_ZNSt6vectorIbSaIbEE6insertESt19_Bit_const_iteratormRKb
FNDA:4,_ZNSt6vectorIbSaIbEE6insertESt19_Bit_const_iteratormRKb
FN:1078,_ZNSt6vectorIbSaIbEE6resizeEmb
FNDA:4,_ZNSt6vectorIbSaIbEE6resizeEmb
FN:1128,_ZNSt6vectorIbSaIbEE15_M_copy_alignedESt19_Bit_const_iteratorS2_St13_Bit_iterator
FNDA:4,_ZNSt6vectorIbSaIbEE15_M_copy_alignedESt19_Bit_const_iteratorS2_St13_Bit_iterator
FN:1307,_ZNKSt6vectorIbSaIbEE12_M_check_lenEmPKc
FNDA:4,_ZNKSt6vectorIbSaIbEE12_M_check_lenEmPKc
FN:1317,_ZNSt6vectorIbSaIbEE15_M_erase_at_endESt13_Bit_iterator
FNDA:0,_ZNSt6vectorIbSaIbEE15_M_erase_at_endESt13_Bit_iterator
FN:1330,_ZSt14__fill_bvectorPmjjb
FNDA:3,_ZSt14__fill_bvectorPmjjb
FN:1346,_ZSt9__fill_a1St13_Bit_iteratorS_RKb
FNDA:4,_ZSt9__fill_a1St13_Bit_iteratorS_RKb
DA:77,288
DA:78,288
DA:86,192
DA:87,192
DA:90,96
DA:92,96
DA:93,40
DA:95,56
DA:96,96
DA:100,0
DA:101,0
DA:148,219
DA:149,219
DA:152,192
DA:154,192
DA:156,3
DA:157,3
DA:159,192
DA:162,0
DA:164,0
DA:166,0
DA:167,0
DA:169,0
DA:172,108
DA:174,108
DA:175,108
DA:176,108
DA:177,108
DA:179,0
DA:180,0
DA:182,108
DA:183,108
DA:186,195
DA:187,195
DA:207,195
DA:208,195
DA:224,44
DA:226,44
DA:227,44
DA:241,16
DA:243,119
DA:244,119
DA:251,288
DA:252,288
DA:255,192
DA:257,192
DA:258,192
DA:270,0
DA:272,0
DA:273,0
DA:285,108
DA:287,108
DA:288,108
DA:299,96
DA:300,96
DA:303,108
DA:305,108
DA:306,108
DA:307,108
DA:336,44
DA:337,44
DA:339,40
DA:340,40
DA:343,4
DA:344,4
DA:347,0
DA:348,0
DA:351,0
DA:353,0
DA:354,0
DA:443,8
DA:444,8
DA:445,8
DA:465,4
DA:466,4
DA:480,4
DA:482,4
DA:483,4
DA:502,8
DA:504,8
DA:505,4
DA:506,4
DA:518,8
DA:519,8
DA:526,4
DA:542,4
DA:543,4
DA:549,4
DA:550,4
DA:553,8
DA:555,8
DA:557,4
DA:558,4
DA:559,4
DA:561,4
DA:563,8
DA:572,8
DA:573,8
DA:632,4
DA:733,4
DA:831,107
DA:832,107
DA:835,32
DA:836,32
DA:839,11
DA:840,11
DA:843,28
DA:844,28
DA:864,4
DA:865,4
DA:881,28
DA:882,28
DA:885,8
DA:887,8
DA:891,8
DA:893,8
DA:897,4
DA:898,4
DA:899,8
DA:906,96
DA:907,96
DA:1039,4
DA:1041,4
DA:1042,4
DA:1043,4
DA:1078,4
DA:1080,4
DA:1081,0
DA:1083,4
DA:1084,4
DA:1128,4
DA:1131,4
DA:1132,8
DA:1133,8
DA:1307,4
DA:1309,4
DA:1310,0
DA:1312,4
DA:1313,4
DA:1317,0
DA:1318,0
DA:1330,3
DA:1335,3
DA:1336,3
DA:1337,3
DA:1339,3
DA:1340,3
DA:1342,0
DA:1343,3
DA:1346,4
DA:1351,4
DA:1353,1
DA:1354,1
DA:1355,0
DA:1357,1
DA:1358,1
DA:1360,1
DA:1361,0
DA:1363,3
DA:1364,3
DA:1365,4
end_of_record
SF:/usr/include/c++/11/bits/stl_algobase.h
FN:230,_ZSt3minImERKT_S2_S2_
FNDA:51,_ZSt3minImERKT_S2_S2_
FN:254,_ZSt3maxImERKT_S2_S2_
FNDA:24,_ZSt3maxImERKT_S2_S2_
FN:313,_ZSt12__niter_baseIPSt3setIiSt4lessIiESaIiEEET_S6_
FNDA:12,_ZSt12__niter_baseIPSt3setIiSt4lessIiESaIiEEET_S6_
FN:313,_ZSt12__niter_baseISt13_Bit_iteratorET_S1_
FNDA:16,_ZSt12__niter_baseISt13_Bit_iteratorET_S1_
FN:313,_ZSt12__niter_baseISt19_Bit_const_iteratorET_S1_
FNDA:8,_ZSt12__niter_baseISt19_Bit_const_iteratorET_S1_
FN:313,_ZSt12__niter_baseIPmET_S1_
FNDA:12,_ZSt12__niter_baseIPmET_S1_
FN:335,_ZSt12__niter_wrapISt13_Bit_iteratorET_RKS1_S1_
FNDA:8,_ZSt12__niter_wrapISt13_Bit_iteratorET_RKS1_S1_
FN:335,_ZSt12__niter_wrapIPmET_RKS1_S1_
FNDA:4,_ZSt12__niter_wrapIPmET_RKS1_S1_
FN:380,_ZNSt11__copy_moveILb0ELb0ESt26random_access_iterator_tagE8__copy_mISt19_Bit_const_iteratorSt13_Bit_iteratorEET0_T_S6_S5_
FNDA:4,_ZNSt11__copy_moveILb0ELb0ESt26random_access_iterator_tagE8__copy_mISt19_Bit_const_iteratorSt13_Bit_iteratorEET0_T_S6_S5_
FN:380,_ZNSt11__copy_moveILb0ELb0ESt26random_access_iterator_tagE8__copy_mISt13_Bit_iteratorS3_EET0_T_S5_S4_
FNDA:4,_ZNSt11__copy_moveILb0ELb0ESt26random_access_iterator_tagE8__copy_mISt13_Bit_iteratorS3_EET0_T_S5_S4_
FN:420,_ZNSt11__copy_moveILb0ELb1ESt26random_access_iterator_tagE8__copy_mImEEPT_PKS3_S6_S4_
FNDA:4,_ZNSt11__copy_moveILb0ELb1ESt26random_access_iterator_tagE8__copy_mImEEPT_PKS3_S6_S4_
FN:486,_ZSt14__copy_move_a2ILb0ESt19_Bit_const_iteratorSt13_Bit_iteratorET1_T0_S3_S2_
FNDA:4,_ZSt14__copy_move_a2ILb0ESt19_Bit_const_iteratorSt13_Bit_iteratorET1_T0_S3_S2_
FN:486,_ZSt14__copy_move_a2ILb0EPmS0_ET1_T0_S2_S1_
FNDA:4,_ZSt14__copy_move_a2ILb0EPmS0_ET1_T0_S2_S1_
FN:486,_ZSt14__copy_move_a2ILb0ESt13_Bit_iteratorS0_ET1_T0_S2_S1_
FNDA:4,_ZSt14__copy_move_a2ILb0ESt13_Bit_iteratorS0_ET1_T0_S2_S1_
FN:521,_ZSt14__copy_move_a1ILb0ESt13_Bit_iteratorS0_ET1_T0_S2_S1_
FNDA:4,_ZSt14__copy_move_a1ILb0ESt13_Bit_iteratorS0_ET1_T0_S2_S1_
FN:521,_ZSt14__copy_move_a1ILb0EPmS0_ET1_T0_S2_S1_
FNDA:4,_ZSt14__copy_move_a1ILb0EPmS0_ET1_T0_S2_S1_
FN:521,_ZSt14__copy_move_a1ILb0ESt19_Bit_const_iteratorSt13_Bit_iteratorET1_T0_S3_S2_
FNDA:4,_ZSt14__copy_move_a1ILb0ESt19_Bit_const_iteratorSt13_Bit_iteratorET1_T0_S3_S2_
FN:527,_ZSt13__copy_move_aILb0ESt13_Bit_iteratorS0_ET1_T0_S2_S1_
FNDA:4,_ZSt13__copy_move_aILb0ESt13_Bit_iteratorS0_ET1_T0_S2_S1_
FN:527,_ZSt13__copy_move_aILb0EPmS0_ET1_T0_S2_S1_
FNDA:4,_ZSt13__copy_move_aILb0EPmS0_ET1_T0_S2_S1_
FN:527,_ZSt13__copy_move_aILb0ESt19_Bit_const_iteratorSt13_Bit_iteratorET1_T0_S3_S2_
FNDA:4,_ZSt13__copy_move_aILb0ESt19_Bit_const_iteratorSt13_Bit_iteratorET1_T0_S3_S2_
FN:611,_ZSt4copyISt19_Bit_const_iteratorSt13_Bit_iteratorET0_T_S3_S2_
FNDA:4,_ZSt4copyISt19_Bit_const_iteratorSt13_Bit_iteratorET0_T_S3_S2_
FN:611,_ZSt4copyIPmS0_ET0_T_S2_S1_
FNDA:4,_ZSt4copyIPmS0_ET0_T_S2_S1_
FN:611,_ZSt4copyISt13_Bit_iteratorS0_ET0_T_S2_S1_
FNDA:4,_ZSt4copyISt13_Bit_iteratorS0_ET0_T_S2_S1_
FN:697,_ZNSt20__copy_move_backwardILb0ELb0ESt26random_access_iterator_tagE13__copy_move_bISt13_Bit_iteratorS3_EET0_T_S5_S4_
FNDA:0,_ZNSt20__copy_move_backwardILb0ELb0ESt26random_access_iterator_tagE13__copy_move_bISt13_Bit_iteratorS3_EET0_T_S5_S4_
FN:750,_ZSt23__copy_move_backward_a2ILb0ESt13_Bit_iteratorS0_ET1_T0_S2_S1_
FNDA:0,_ZSt23__copy_move_backward_a2ILb0ESt13_Bit_iteratorS0_ET1_T0_S2_S1_
FN:768,_ZSt23__copy_move_backward_a1ILb0ESt13_Bit_iteratorS0_ET1_T0_S2_S1_
FNDA:0,_ZSt23__copy_move_backward_a1ILb0ESt13_Bit_iteratorS0_ET1_T0_S2_S1_
FN:796,_ZSt22__copy_move_backward_aILb0ESt13_Bit_iteratorS0_ET1_T0_S2_S1_
FNDA:0,_ZSt22__copy_move_backward_aILb0ESt13_Bit_iteratorS0_ET1_T0_S2_S1_
FN:848,_ZSt13copy_backwardISt13_Bit_iteratorS0_ET0_T_S2_S1_
FNDA:0,_ZSt13copy_backwardISt13_Bit_iteratorS0_ET0_T_S2_S1_
FN:968,_ZSt8__fill_aISt13_Bit_iteratorbEvT_S1_RKT0_
FNDA:4,_ZSt8__fill_aISt13_Bit_iteratorbEvT_S1_RKT0_
FN:992,_ZSt4fillISt13_Bit_iteratorbEvT_S1_RKT0_
FNDA:4,_ZSt4fillISt13_Bit_iteratorbEvT_S1_RKT0_
DA:230,51
DA:235,51
DA:236,0
DA:237,51
DA:254,24
DA:259,24
DA:260,18
DA:261,6
DA:313,8
DA:315,8
DA:313,12
DA:315,12
DA:313,16
DA:315,16
DA:313,12
DA:315,12
DA:335,4
DA:336,4
DA:335,8
DA:336,8
DA:380,4
DA:383,4
DA:385,0
DA:386,0
DA:387,0
DA:389,4
DA:380,4
DA:383,4
DA:385,0
DA:386,0
DA:387,0
DA:389,4
DA:420,4
DA:429,4
DA:430,4
DA:431,0
DA:432,4
DA:486,4
DA:495,4
DA:486,4
DA:495,4
DA:486,4
DA:495,4
DA:521,4
DA:522,4
DA:521,4
DA:522,4
DA:521,4
DA:522,4
DA:527,4
DA:529,4
DA:532,4
DA:527,4
DA:529,4
DA:532,4
DA:527,4
DA:529,4
DA:532,4
DA:611,4
DA:620,4
DA:611,4
DA:620,4
DA:611,4
DA:620,4
DA:697,0
DA:700,0
DA:701,0
DA:702,0
DA:703,0
DA:750,0
DA:760,0
DA:762,0
DA:768,0
DA:769,0
DA:796,0
DA:798,0
DA:801,0
DA:848,0
DA:859,0
DA:968,4
DA:969,4
DA:992,4
DA:999,4
DA:1000,4
end_of_record
SF:/usr/include/c++/11/bits/char_traits.h
FN:393,_ZNSt11char_traitsIcE6lengthEPKc
FNDA:0,_ZNSt11char_traitsIcE6lengthEPKc
DA:393,0
DA:399,0
end_of_record
SF:/usr/include/c++/11/ext/alloc_traits.h
FN:97,_ZN9__gnu_cxx14__alloc_traitsISaISt13_Rb_tree_nodeIiEES2_E17_S_select_on_copyERKS3_
FNDA:6,_ZN9__gnu_cxx14__alloc_traitsISaISt13_Rb_tree_nodeIiEES2_E17_S_select_on_copyERKS3_
FN:97,_ZN9__gnu_cxx14__alloc_traitsISaIcEcE17_S_select_on_copyERKS1_
FNDA:0,_ZN9__gnu_cxx14__alloc_traitsISaIcEcE17_S_select_on_copyERKS1_
FN:97,_ZN9__gnu_cxx14__alloc_traitsISaISt3setIiSt4lessIiESaIiEEES5_E17_S_select_on_copyERKS6_
FNDA:1,_ZN9__gnu_cxx14__alloc_traitsISaISt3setIiSt4lessIiESaIiEEES5_E17_S_select_on_copyERKS6_
DA:97,6
DA:98,6
DA:97,0
DA:98,0
DA:97,1
DA:98,1
end_of_record
SF:/usr/include/c++/11/bits/alloc_traits.h
FN:463,_ZNSt16allocator_traitsISaISt13_Rb_tree_nodeIiEEE8allocateERS2_m
FNDA:19,_ZNSt16allocator_traitsISaISt13_Rb_tree_nodeIiEEE8allocateERS2_m
FN:463,_ZNSt16allocator_traitsISaISt3setIiSt4lessIiESaIiEEEE8allocateERS5_m
FNDA:5,_ZNSt16allocator_traitsISaISt3setIiSt4lessIiESaIiEEEE8allocateERS5_m
FN:463,_ZNSt16allocator_traitsISaISt13_Rb_tree_nodeISt4pairIKNSt7__cxx1112basic_stringIcSt11char_traitsIcESaIcEEES1_IiiEEEEE8allocateERSC_m
FNDA:5,_ZNSt16allocator_traitsISaISt13_Rb_tree_nodeISt4pairIKNSt7__cxx1112basic_stringIcSt11char_traitsIcESaIcEEES1_IiiEEEEE8allocateERSC_m
FN:463,_ZNSt16allocator_traitsISaImEE8allocateERS0_m
FNDA:4,_ZNSt16allocator_traitsISaImEE8allocateERS0_m
FN:495,_ZNSt16allocator_traitsISaISt3setIiSt4lessIiESaIiEEEE10deallocateERS5_PS4_m
FNDA:5,_ZNSt16allocator_traitsISaISt3setIiSt4lessIiESaIiEEEE10deallocateERS5_PS4_m
FN:495,_ZNSt16allocator_traitsISaISt13_Rb_tree_nodeIiEEE10deallocateERS2_PS1_m
FNDA:19,_ZNSt16allocator_traitsISaISt13_Rb_tree_nodeIiEEE10deallocateERS2_PS1_m
FN:495,_ZNSt16allocator_traitsISaImEE10deallocateERS0_Pmm
FNDA:4,_ZNSt16allocator_traitsISaImEE10deallocateERS0_Pmm
FN:495,_ZNSt16allocator_traitsISaISt13_Rb_tree_nodeISt4pairIKNSt7__cxx1112basic_stringIcSt11char_traitsIcESaIcEEES1_IiiEEEEE10deallocateERSC_PSB_m
FNDA:5,_ZNSt16allocator_traitsISaISt13_Rb_tree_nodeISt4pairIKNSt7__cxx1112basic_stringIcSt11char_traitsIcESaIcEEES1_IiiEEEEE10deallocateERSC_PSB_m
FN:511,_ZNSt16allocator_traitsISaISt3setIiSt4lessIiESaIiEEEE9constructIS4_JS4_EEEvRS5_PT_DpOT0_
FNDA:0,_ZNSt16allocator_traitsISaISt3setIiSt4lessIiESaIiEEEE9constructIS4_JS4_EEEvRS5_PT_DpOT0_
FN:511,_ZNSt16allocator_traitsISaISt13_Rb_tree_nodeIiEEE9constructIiJiEEEvRS2_PT_DpOT0_
FNDA:7,_ZNSt16allocator_traitsISaISt13_Rb_tree_nodeIiEEE9constructIiJiEEEvRS2_PT_DpOT0_
FN:511,_ZNSt16allocator_traitsISaISt13_Rb_tree_nodeIiEEE9constructIiJRKiEEEvRS2_PT_DpOT0_
FNDA:12,_ZNSt16allocator_traitsISaISt13_Rb_tree_nodeIiEEE9constructIiJRKiEEEvRS2_PT_DpOT0_
FN:511,_ZNSt16allocator_traitsISaISt13_Rb_tree_nodeISt4pairIKNSt7__cxx1112basic_stringIcSt11char_traitsIcESaIcEEES1_IiiEEEEE9constructISA_JRKSt21piecewise_construct_tSt5tupleIJRS8_EESI_IJEEEEEvRSC_PT_DpOT0_
FNDA:5,_ZNSt16allocator_traitsISaISt13_Rb_tree_nodeISt4pairIKNSt7__cxx1112basic_stringIcSt11char_traitsIcESaIcEEES1_IiiEEEEE9constructISA_JRKSt21piecewise_construct_tSt5tupleIJRS8_EESI_IJEEEEEvRSC_PT_DpOT0_
FN:531,_ZNSt16allocator_traitsISaISt3setIiSt4lessIiESaIiEEEE7destroyIS4_EEvRS5_PT_
FNDA:0,_ZNSt16allocator_traitsISaISt3setIiSt4lessIiESaIiEEEE7destroyIS4_EEvRS5_PT_
FN:531,_ZNSt16allocator_traitsISaISt13_Rb_tree_nodeISt4pairIKNSt7__cxx1112basic_stringIcSt11char_traitsIcESaIcEEES1_IiiEEEEE7destroyISA_EEvRSC_PT_
FNDA:5,_ZNSt16allocator_traitsISaISt13_Rb_tree_nodeISt4pairIKNSt7__cxx1112basic_stringIcSt11char_traitsIcESaIcEEES1_IiiEEEEE7destroyISA_EEvRSC_PT_
FN:531,_ZNSt16allocator_traitsISaISt13_Rb_tree_nodeIiEEE7destroyIiEEvRS2_PT_
FNDA:19,_ZNSt16allocator_traitsISaISt13_Rb_tree_nodeIiEEE7destroyIiEEvRS2_PT_
FN:547,_ZNSt16allocator_traitsISaISt3setIiSt4lessIiESaIiEEEE8max_sizeERKS5_
FNDA:16,_ZNSt16allocator_traitsISaISt3setIiSt4lessIiESaIiEEEE8max_sizeERKS5_
FN:547,_ZNSt16allocator_traitsISaImEE8max_sizeERKS0_
FNDA:8,_ZNSt16allocator_traitsISaImEE8max_sizeERKS0_
FN:562,_ZNSt16allocator_traitsISaIcEE37select_on_container_copy_constructionERKS0_
FNDA:0,_ZNSt16allocator_traitsISaIcEE37select_on_container_copy_constructionERKS0_
FN:562,_ZNSt16allocator_traitsISaISt3setIiSt4lessIiESaIiEEEE37select_on_container_copy_constructionERKS5_
FNDA:1,_ZNSt16allocator_traitsISaISt3setIiSt4lessIiESaIiEEEE37select_on_container_copy_constructionERKS5_
FN:562,_ZNSt16allocator_traitsISaISt13_Rb_tree_nodeIiEEE37select_on_container_copy_constructionERKS2_
FNDA:6,_ZNSt16allocator_traitsISaISt13_Rb_tree_nodeIiEEE37select_on_container_copy_constructionERKS2_
FN:845,_ZSt8_DestroyIPSt3setIiSt4lessIiESaIiEES4_EvT_S6_RSaIT0_E
FNDA:5,_ZSt8_DestroyIPSt3setIiSt4lessIiESaIiEES4_EvT_S6_RSaIT0_E
DA:463,19
DA:464,19
DA:463,5
DA:464,5
DA:463,4
DA:464,4
DA:463,5
DA:464,5
DA:495,19
DA:496,19
DA:495,5
DA:496,5
DA:495,4
DA:496,4
DA:495,5
DA:496,5
DA:511,0
DA:516,0
DA:520,0
DA:511,7
DA:516,7
DA:520,7
DA:511,12
DA:516,12
DA:520,12
DA:511,5
DA:516,5
DA:520,5
DA:531,0
DA:535,0
DA:539,0
DA:531,19
DA:535,19
DA:539,19
DA:531,5
DA:535,5
DA:539,5
DA:547,8
DA:550,8
DA:547,16
DA:550,16
DA:562,6
DA:563,6
DA:562,0
DA:563,0
DA:562,1
DA:563,1
DA:845,5
DA:848,5
DA:849,5
end_of_record
SF:/usr/include/c++/11/bits/stl_map.h
FN:185,_ZNSt3mapINSt7__cxx1112basic_stringIcSt11char_traitsIcESaIcEEESt4pairIiiESt4lessIS5_ESaIS6_IKS5_S7_EEEC2Ev
FNDA:4,_ZNSt3mapINSt7__cxx1112basic_stringIcSt11char_traitsIcESaIcEEESt4pairIiiESt4lessIS5_ESaIS6_IKS5_S7_EEEC2Ev
FN:302,_ZNSt3mapINSt7__cxx1112basic_stringIcSt11char_traitsIcESaIcEEESt4pairIiiESt4lessIS5_ESaIS6_IKS5_S7_EEED2Ev
FNDA:4,_ZNSt3mapINSt7__cxx1112basic_stringIcSt11char_traitsIcESaIcEEESt4pairIiiESt4lessIS5_ESaIS6_IKS5_S7_EEED2Ev
FN:356,_ZNSt3mapINSt7__cxx1112basic_stringIcSt11char_traitsIcESaIcEEESt4pairIiiESt4lessIS5_ESaIS6_IKS5_S7_EEE5beginEv
FNDA:1,_ZNSt3mapINSt7__cxx1112basic_stringIcSt11char_traitsIcESaIcEEESt4pairIiiESt4lessIS5_ESaIS6_IKS5_S7_EEE5beginEv
FN:374,_ZNSt3mapINSt7__cxx1112basic_stringIcSt11char_traitsIcESaIcEEESt4pairIiiESt4lessIS5_ESaIS6_IKS5_S7_EEE3endEv
FNDA:19,_ZNSt3mapINSt7__cxx1112basic_stringIcSt11char_traitsIcESaIcEEESt4pairIiiESt4lessIS5_ESaIS6_IKS5_S7_EEE3endEv
FN:492,_ZNSt3mapINSt7__cxx1112basic_stringIcSt11char_traitsIcESaIcEEESt4pairIiiESt4lessIS5_ESaIS6_IKS5_S7_EEEixERSA_
FNDA:5,_ZNSt3mapINSt7__cxx1112basic_stringIcSt11char_traitsIcESaIcEEESt4pairIiiESt4lessIS5_ESaIS6_IKS5_S7_EEEixERSA_
FN:1068,_ZNSt3mapINSt7__cxx1112basic_stringIcSt11char_traitsIcESaIcEEESt4pairIiiESt4lessIS5_ESaIS6_IKS5_S7_EEE5eraseERSA_
FNDA:4,_ZNSt3mapINSt7__cxx1112basic_stringIcSt11char_traitsIcESaIcEEESt4pairIiiESt4lessIS5_ESaIS6_IKS5_S7_EEE5eraseERSA_
FN:1142,_ZNKSt3mapINSt7__cxx1112basic_stringIcSt11char_traitsIcESaIcEEESt4pairIiiESt4lessIS5_ESaIS6_IKS5_S7_EEE8key_compEv
FNDA:0,_ZNKSt3mapINSt7__cxx1112basic_stringIcSt11char_traitsIcESaIcEEESt4pairIiiESt4lessIS5_ESaIS6_IKS5_S7_EEE8key_compEv
FN:1169,_ZNSt3mapINSt7__cxx1112basic_stringIcSt11char_traitsIcESaIcEEESt4pairIiiESt4lessIS5_ESaIS6_IKS5_S7_EEE4findERSA_
FNDA:13,_ZNSt3mapINSt7__cxx1112basic_stringIcSt11char_traitsIcESaIcEEESt4pairIiiESt4lessIS5_ESaIS6_IKS5_S7_EEE4findERSA_
FN:1258,_ZNSt3mapINSt7__cxx1112basic_stringIcSt11char_traitsIcESaIcEEESt4pairIiiESt4lessIS5_ESaIS6_IKS5_S7_EEE11lower_boundERSA_
FNDA:5,_ZNSt3mapINSt7__cxx1112basic_stringIcSt11char_traitsIcESaIcEEESt4pairIiiESt4lessIS5_ESaIS6_IKS5_S7_EEE11lower_boundERSA_
DA:185,4
DA:302,4
DA:356,1
DA:357,1
DA:374,19
DA:375,19
DA:492,5
DA:497,5
DA:499,5
DA:501,5
DA:502,5
DA:503,5
DA:507,5
DA:1068,4
DA:1069,4
DA:1142,0
DA:1143,0
DA:1169,13
DA:1170,13
DA:1258,5
DA:1259,5
end_of_record
SF:/usr/include/c++/11/bits/stl_tree.h
FN:112,_ZNSt18_Rb_tree_node_base10_S_minimumEPS_
FNDA:1,_ZNSt18_Rb_tree_node_base10_S_minimumEPS_
FN:126,_ZNSt18_Rb_tree_node_base10_S_maximumEPS_
FNDA:1,_ZNSt18_Rb_tree_node_base10_S_maximumEPS_
FN:146,_ZNSt20_Rb_tree_key_compareISt4lessINSt7__cxx1112basic_stringIcSt11char_traitsIcESaIcEEEEEC2Ev
FNDA:6,_ZNSt20_Rb_tree_key_compareISt4lessINSt7__cxx1112basic_stringIcSt11char_traitsIcESaIcEEEEEC2Ev
FN:146,_ZNSt20_Rb_tree_key_compareISt4lessIiEEC2Ev
FNDA:25,_ZNSt20_Rb_tree_key_compareISt4lessIiEEC2Ev
FN:152,_ZNSt20_Rb_tree_key_compareISt4lessIiEEC2ERKS1_
FNDA:6,_ZNSt20_Rb_tree_key_compareISt4lessIiEEC2ERKS1_
FN:160,_ZNSt20_Rb_tree_key_compareISt4lessIiEEC2EOS2_
FNDA:0,_ZNSt20_Rb_tree_key_compareISt4lessIiEEC2EOS2_
FN:173,_ZNSt15_Rb_tree_headerC2Ev
FNDA:37,_ZNSt15_Rb_tree_headerC2Ev
FN:180,_ZNSt15_Rb_tree_headerC2EOS_
FNDA:0,_ZNSt15_Rb_tree_headerC2EOS_
FN:193,_ZNSt15_Rb_tree_header12_M_move_dataERS_
FNDA:0,_ZNSt15_Rb_tree_header12_M_move_dataERS_
FN:206,_ZNSt15_Rb_tree_header8_M_resetEv
FNDA:48,_ZNSt15_Rb_tree_header8_M_resetEv
FN:234,_ZNSt13_Rb_tree_nodeIiE9_M_valptrEv
FNDA:39,_ZNSt13_Rb_tree_nodeIiE9_M_valptrEv
FN:234,_ZNSt13_Rb_tree_nodeISt4pairIKNSt7__cxx1112basic_stringIcSt11char_traitsIcESaIcEEES0_IiiEEE9_M_valptrEv
FNDA:20,_ZNSt13_Rb_tree_nodeISt4pairIKNSt7__cxx1112basic_stringIcSt11char_traitsIcESaIcEEES0_IiiEEE9_M_valptrEv
FN:238,_ZNKSt13_Rb_tree_nodeISt4pairIKNSt7__cxx1112basic_stringIcSt11char_traitsIcESaIcEEES0_IiiEEE9_M_valptrEv
FNDA:35,_ZNKSt13_Rb_tree_nodeISt4pairIKNSt7__cxx1112basic_stringIcSt11char_traitsIcESaIcEEES0_IiiEEE9_M_valptrEv
FN:238,_ZNKSt13_Rb_tree_nodeIiE9_M_valptrEv
FNDA:83,_ZNKSt13_Rb_tree_nodeIiE9_M_valptrEv
FN:273,_ZNSt17_Rb_tree_iteratorIiEC2EPSt18_Rb_tree_node_base
FNDA:104,_ZNSt17_Rb_tree_iteratorIiEC2EPSt18_Rb_tree_node_base
FN:273,_ZNSt17_Rb_tree_iteratorISt4pairIKNSt7__cxx1112basic_stringIcSt11char_traitsIcESaIcEEES0_IiiEEEC2EPSt18_Rb_tree_node_base
FNDA:91,_ZNSt17_Rb_tree_iteratorISt4pairIKNSt7__cxx1112basic_stringIcSt11char_traitsIcESaIcEEES0_IiiEEEC2EPSt18_Rb_tree_node_base
FN:277,_ZNKSt17_Rb_tree_iteratorISt4pairIKNSt7__cxx1112basic_stringIcSt11char_traitsIcESaIcEEES0_IiiEEEdeEv
FNDA:6,_ZNKSt17_Rb_tree_iteratorISt4pairIKNSt7__cxx1112basic_stringIcSt11char_traitsIcESaIcEEES0_IiiEEEdeEv
FN:281,_ZNKSt17_Rb_tree_iteratorISt4pairIKNSt7__cxx1112basic_stringIcSt11char_traitsIcESaIcEEES0_IiiEEEptEv
FNDA:4,_ZNKSt17_Rb_tree_iteratorISt4pairIKNSt7__cxx1112basic_stringIcSt11char_traitsIcESaIcEEES0_IiiEEEptEv
FN:285,_ZNSt17_Rb_tree_iteratorISt4pairIKNSt7__cxx1112basic_stringIcSt11char_traitsIcESaIcEEES0_IiiEEEppEv
FNDA:1,_ZNSt17_Rb_tree_iteratorISt4pairIKNSt7__cxx1112basic_stringIcSt11char_traitsIcESaIcEEES0_IiiEEEppEv
FN:300,_ZNSt17_Rb_tree_iteratorIiEmmEv
FNDA:0,_ZNSt17_Rb_tree_iteratorIiEmmEv
FN:300,_ZNSt17_Rb_tree_iteratorISt4pairIKNSt7__cxx1112basic_stringIcSt11char_traitsIcESaIcEEES0_IiiEEEmmEv
FNDA:0,_ZNSt17_Rb_tree_iteratorISt4pairIKNSt7__cxx1112basic_stringIcSt11char_traitsIcESaIcEEES0_IiiEEEmmEv
FN:315,_ZSteqRKSt17_Rb_tree_iteratorIiES2_
FNDA:17,_ZSteqRKSt17_Rb_tree_iteratorIiES2_
FN:315,_ZSteqRKSt17_Rb_tree_iteratorISt4pairIKNSt7__cxx1112basic_stringIcSt11char_traitsIcESaIcEEES0_IiiEEESC_
FNDA:26,_ZSteqRKSt17_Rb_tree_iteratorISt4pairIKNSt7__cxx1112basic_stringIcSt11char_traitsIcESaIcEEES0_IiiEEESC_
FN:320,_ZStneRKSt17_Rb_tree_iteratorISt4pairIKNSt7__cxx1112basic_stringIcSt11char_traitsIcESaIcEEES0_IiiEEESC_
FNDA:10,_ZStneRKSt17_Rb_tree_iteratorISt4pairIKNSt7__cxx1112basic_stringIcSt11char_traitsIcESaIcEEES0_IiiEEESC_
FN:347,_ZNSt23_Rb_tree_const_iteratorIiEC2EPKSt18_Rb_tree_node_base
FNDA:79,_ZNSt23_Rb_tree_const_iteratorIiEC2EPKSt18_Rb_tree_node_base
FN:350,_ZNSt23_Rb_tree_const_iteratorISt4pairIKNSt7__cxx1112basic_stringIcSt11char_traitsIcESaIcEEES0_IiiEEEC2ERKSt17_Rb_tree_iteratorIS9_E
FNDA:21,_ZNSt23_Rb_tree_const_iteratorISt4pairIKNSt7__cxx1112basic_stringIcSt11char_traitsIcESaIcEEES0_IiiEEEC2ERKSt17_Rb_tree_iteratorIS9_E
FN:350,_ZNSt23_Rb_tree_const_iteratorIiEC2ERKSt17_Rb_tree_iteratorIiE
FNDA:69,_ZNSt23_Rb_tree_const_iteratorIiEC2ERKSt17_Rb_tree_iteratorIiE
FN:354,_ZNKSt23_Rb_tree_const_iteratorISt4pairIKNSt7__cxx1112basic_stringIcSt11char_traitsIcESaIcEEES0_IiiEEE13_M_const_castEv
FNDA:5,_ZNKSt23_Rb_tree_const_iteratorISt4pairIKNSt7__cxx1112basic_stringIcSt11char_traitsIcESaIcEEES0_IiiEEE13_M_const_castEv
FN:358,_ZNKSt23_Rb_tree_const_iteratorIiEdeEv
FNDA:7,_ZNKSt23_Rb_tree_const_iteratorIiEdeEv
FN:366,_ZNSt23_Rb_tree_const_iteratorIiEppEv
FNDA:2,_ZNSt23_Rb_tree_const_iteratorIiEppEv
FN:373,_ZNSt23_Rb_tree_const_iteratorISt4pairIKNSt7__cxx1112basic_stringIcSt11char_traitsIcESaIcEEES0_IiiEEEppEi
FNDA:2,_ZNSt23_Rb_tree_const_iteratorISt4pairIKNSt7__cxx1112basic_stringIcSt11char_traitsIcESaIcEEES0_IiiEEEppEi
FN:373,_ZNSt23_Rb_tree_const_iteratorIiEppEi
FNDA:4,_ZNSt23_Rb_tree_const_iteratorIiEppEi
FN:396,_ZSteqRKSt23_Rb_tree_const_iteratorISt4pairIKNSt7__cxx1112basic_stringIcSt11char_traitsIcESaIcEEES0_IiiEEESC_
FNDA:8,_ZSteqRKSt23_Rb_tree_const_iteratorISt4pairIKNSt7__cxx1112basic_stringIcSt11char_traitsIcESaIcEEES0_IiiEEESC_
FN:396,_ZSteqRKSt23_Rb_tree_const_iteratorIiES2_
FNDA:57,_ZSteqRKSt23_Rb_tree_const_iteratorIiES2_
FN:401,_ZStneRKSt23_Rb_tree_const_iteratorISt4pairIKNSt7__cxx1112basic_stringIcSt11char_traitsIcESaIcEEES0_IiiEEESC_
FNDA:4,_ZStneRKSt23_Rb_tree_const_iteratorISt4pairIKNSt7__cxx1112basic_stringIcSt11char_traitsIcESaIcEEES0_IiiEEESC_
FN:401,_ZStneRKSt23_Rb_tree_const_iteratorIiES2_
FNDA:17,_ZStneRKSt23_Rb_tree_const_iteratorIiES2_
FN:523,_ZNSt8_Rb_treeIiiSt9_IdentityIiESt4lessIiESaIiEE11_Alloc_nodeC2ERS5_
FNDA:19,_ZNSt8_Rb_treeIiiSt9_IdentityIiESt4lessIiESaIiEE11_Alloc_nodeC2ERS5_
FN:528,_ZNKSt8_Rb_treeIiiSt9_IdentityIiESt4lessIiESaIiEE11_Alloc_nodeclIRKiEEPSt13_Rb_tree_nodeIiEOT_
FNDA:12,_ZNKSt8_Rb_treeIiiSt9_IdentityIiESt4lessIiESaIiEE11_Alloc_nodeclIRKiEEPSt13_Rb_tree_nodeIiEOT_
FN:528,_ZNKSt8_Rb_treeIiiSt9_IdentityIiESt4lessIiESaIiEE11_Alloc_nodeclIiEEPSt13_Rb_tree_nodeIiEOT_
FNDA:7,_ZNKSt8_Rb_treeIiiSt9_IdentityIiESt4lessIiESaIiEE11_Alloc_nodeclIiEEPSt13_Rb_tree_nodeIiEOT_
FN:547,_ZNSt8_Rb_treeIiiSt9_IdentityIiESt4lessIiESaIiEE21_M_get_Node_allocatorEv
FNDA:76,_ZNSt8_Rb_treeIiiSt9_IdentityIiESt4lessIiESaIiEE21_M_get_Node_allocatorEv
FN:547,_ZNSt8_Rb_treeINSt7__cxx1112basic_stringIcSt11char_traitsIcESaIcEEESt4pairIKS5_S6_IiiEESt10_Select1stIS9_ESt4lessIS5_ESaIS9_EE21_M_get_Node_allocatorEv
FNDA:20,_ZNSt8_Rb_treeINSt7__cxx1112basic_stringIcSt11char_traitsIcESaIcEEESt4pairIKS5_S6_IiiEESt10_Select1stIS9_ESt4lessIS5_ESaIS9_EE21_M_get_Node_allocatorEv
FN:560,_ZNSt8_Rb_treeINSt7__cxx1112basic_stringIcSt11char_traitsIcESaIcEEESt4pairIKS5_S6_IiiEESt10_Select1stIS9_ESt4lessIS5_ESaIS9_EE11_M_get_nodeEv
FNDA:5,_ZNSt8_Rb_treeINSt7__cxx1112basic_stringIcSt11char_traitsIcESaIcEEESt4pairIKS5_S6_IiiEESt10_Select1stIS9_ESt4lessIS5_ESaIS9_EE11_M_get_nodeEv
FN:560,_ZNSt8_Rb_treeIiiSt9_IdentityIiESt4lessIiESaIiEE11_M_get_nodeEv
FNDA:19,_ZNSt8_Rb_treeIiiSt9_IdentityIiESt4lessIiESaIiEE11_M_get_nodeEv
FN:564,_ZNSt8_Rb_treeINSt7__cxx1112basic_stringIcSt11char_traitsIcESaIcEEESt4pairIKS5_S6_IiiEESt10_Select1stIS9_ESt4lessIS5_ESaIS9_EE11_M_put_nodeEPSt13_Rb_tree_nodeIS9_E
FNDA:5,_ZNSt8_Rb_treeINSt7__cxx1112basic_stringIcSt11char_traitsIcESaIcEEESt4pairIKS5_S6_IiiEESt10_Select1stIS9_ESt4lessIS5_ESaIS9_EE11_M_put_nodeEPSt13_Rb_tree_nodeIS9_E
FN:564,_ZNSt8_Rb_treeIiiSt9_IdentityIiESt4lessIiESaIiEE11_M_put_nodeEPSt13_Rb_tree_nodeIiE
FNDA:19,_ZNSt8_Rb_treeIiiSt9_IdentityIiESt4lessIiESaIiEE11_M_put_nodeEPSt13_Rb_tree_nodeIiE
FN:590,_ZNSt8_Rb_treeIiiSt9_IdentityIiESt4lessIiESaIiEE17_M_construct_nodeIJRKiEEEvPSt13_Rb_tree_nodeIiEDpOT_
FNDA:12,_ZNSt8_Rb_treeIiiSt9_IdentityIiESt4lessIiESaIiEE17_M_construct_nodeIJRKiEEEvPSt13_Rb_tree_nodeIiEDpOT_
FN:590,_ZNSt8_Rb_treeIiiSt9_IdentityIiESt4lessIiESaIiEE17_M_construct_nodeIJiEEEvPSt13_Rb_tree_nodeIiEDpOT_
FNDA:7,_ZNSt8_Rb_treeIiiSt9_IdentityIiESt4lessIiESaIiEE17_M_construct_nodeIJiEEEvPSt13_Rb_tree_nodeIiEDpOT_
FN:590,_ZNSt8_Rb_treeINSt7__cxx1112basic_stringIcSt11char_traitsIcESaIcEEESt4pairIKS5_S6_IiiEESt10_Select1stIS9_ESt4lessIS5_ESaIS9_EE17_M_construct_nodeIJRKSt21piecewise_construct_tSt5tupleIJRS7_EESK_IJEEEEEvPSt13_Rb_tree_nodeIS9_EDpOT_
FNDA:5,_ZNSt8_Rb_treeINSt7__cxx1112basic_stringIcSt11char_traitsIcESaIcEEESt4pairIKS5_S6_IiiEESt10_Select1stIS9_ESt4lessIS5_ESaIS9_EE17_M_construct_nodeIJRKSt21piecewise_construct_tSt5tupleIJRS7_EESK_IJEEEEEvPSt13_Rb_tree_nodeIS9_EDpOT_
FN:609,_ZNSt8_Rb_treeINSt7__cxx1112basic_stringIcSt11char_traitsIcESaIcEEESt4pairIKS5_S6_IiiEESt10_Select1stIS9_ESt4lessIS5_ESaIS9_EE14_M_create_nodeIJRKSt21piecewise_construct_tSt5tupleIJRS7_EESK_IJEEEEEPSt13_Rb_tree_nodeIS9_EDpOT_
FNDA:5,_ZNSt8_Rb_treeINSt7__cxx1112basic_stringIcSt11char_traitsIcESaIcEEESt4pairIKS5_S6_IiiEESt10_Select1stIS9_ESt4lessIS5_ESaIS9_EE14_M_create_nodeIJRKSt21piecewise_construct_tSt5tupleIJRS7_EESK_IJEEEEEPSt13_Rb_tree_nodeIS9_EDpOT_
FN:609,_ZNSt8_Rb_treeIiiSt9_IdentityIiESt4lessIiESaIiEE14_M_create_nodeIJiEEEPSt13_Rb_tree_nodeIiEDpOT_
FNDA:7,_ZNSt8_Rb_treeIiiSt9_IdentityIiESt4lessIiESaIiEE14_M_create_nodeIJiEEEPSt13_Rb_tree_nodeIiEDpOT_
FN:609,_ZNSt8_Rb_treeIiiSt9_IdentityIiESt4lessIiESaIiEE14_M_create_nodeIJRKiEEEPSt13_Rb_tree_nodeIiEDpOT_
FNDA:12,_ZNSt8_Rb_treeIiiSt9_IdentityIiESt4lessIiESaIiEE14_M_create_nodeIJRKiEEEPSt13_Rb_tree_nodeIiEDpOT_
FN:618,_ZNSt8_Rb_treeIiiSt9_IdentityIiESt4lessIiESaIiEE15_M_destroy_nodeEPSt13_Rb_tree_nodeIiE
FNDA:19,_ZNSt8_Rb_treeIiiSt9_IdentityIiESt4lessIiESaIiEE15_M_destroy_nodeEPSt13_Rb_tree_nodeIiE
FN:618,_ZNSt8_Rb_treeINSt7__cxx1112basic_stringIcSt11char_traitsIcESaIcEEESt4pairIKS5_S6_IiiEESt10_Select1stIS9_ESt4lessIS5_ESaIS9_EE15_M_destroy_nodeEPSt13_Rb_tree_nodeIS9_E
FNDA:5,_ZNSt8_Rb_treeINSt7__cxx1112basic_stringIcSt11char_traitsIcESaIcEEESt4pairIKS5_S6_IiiEESt10_Select1stIS9_ESt4lessIS5_ESaIS9_EE15_M_destroy_nodeEPSt13_Rb_tree_nodeIS9_E
FN:629,_ZNSt8_Rb_treeINSt7__cxx1112basic_stringIcSt11char_traitsIcESaIcEEESt4pairIKS5_S6_IiiEESt10_Select1stIS9_ESt4lessIS5_ESaIS9_EE12_M_drop_nodeEPSt13_Rb_tree_nodeIS9_E
FNDA:5,_ZNSt8_Rb_treeINSt7__cxx1112basic_stringIcSt11char_traitsIcESaIcEEESt4pairIKS5_S6_IiiEESt10_Select1stIS9_ESt4lessIS5_ESaIS9_EE12_M_drop_nodeEPSt13_Rb_tree_nodeIS9_E
FN:629,_ZNSt8_Rb_treeIiiSt9_IdentityIiESt4lessIiESaIiEE12_M_drop_nodeEPSt13_Rb_tree_nodeIiE
FNDA:19,_ZNSt8_Rb_treeIiiSt9_IdentityIiESt4lessIiESaIiEE12_M_drop_nodeEPSt13_Rb_tree_nodeIiE
FN:637,_ZNSt8_Rb_treeIiiSt9_IdentityIiESt4lessIiESaIiEE13_M_clone_nodeILb0ENS5_11_Alloc_nodeEEEPSt13_Rb_tree_nodeIiESA_RT0_
FNDA:1,_ZNSt8_Rb_treeIiiSt9_IdentityIiESt4lessIiESaIiEE13_M_clone_nodeILb0ENS5_11_Alloc_nodeEEEPSt13_Rb_tree_nodeIiESA_RT0_
FN:667,_ZNSt8_Rb_treeINSt7__cxx1112basic_stringIcSt11char_traitsIcESaIcEEESt4pairIKS5_S6_IiiEESt10_Select1stIS9_ESt4lessIS5_ESaIS9_EE13_Rb_tree_implISD_Lb1EEC2Ev
FNDA:4,_ZNSt8_Rb_treeINSt7__cxx1112basic_stringIcSt11char_traitsIcESaIcEEESt4pairIKS5_S6_IiiEESt10_Select1stIS9_ESt4lessIS5_ESaIS9_EE13_Rb_tree_implISD_Lb1EEC2Ev
FN:667,_ZNSt8_Rb_treeIiiSt9_IdentityIiESt4lessIiESaIiEE13_Rb_tree_implIS3_Lb1EEC2Ev
FNDA:25,_ZNSt8_Rb_treeIiiSt9_IdentityIiESt4lessIiESaIiEE13_Rb_tree_implIS3_Lb1EEC2Ev
FN:674,_ZNSt8_Rb_treeIiiSt9_IdentityIiESt4lessIiESaIiEE13_Rb_tree_implIS3_Lb1EEC2ERKS7_
FNDA:6,_ZNSt8_Rb_treeIiiSt9_IdentityIiESt4lessIiESaIiEE13_Rb_tree_implIS3_Lb1EEC2ERKS7_
FN:685,_ZNSt8_Rb_treeIiiSt9_IdentityIiESt4lessIiESaIiEE13_Rb_tree_implIS3_Lb1EEC2EOS7_
FNDA:0,_ZNSt8_Rb_treeIiiSt9_IdentityIiESt4lessIiESaIiEE13_Rb_tree_implIS3_Lb1EEC2EOS7_
FN:710,_ZNSt8_Rb_treeIiiSt9_IdentityIiESt4lessIiESaIiEE7_M_rootEv
FNDA:1,_ZNSt8_Rb_treeIiiSt9_IdentityIiESt4lessIiESaIiEE7_M_rootEv
FN:714,_ZNKSt8_Rb_treeIiiSt9_IdentityIiESt4lessIiESaIiEE7_M_rootEv
FNDA:6,_ZNKSt8_Rb_treeIiiSt9_IdentityIiESt4lessIiESaIiEE7_M_rootEv
FN:718,_ZNSt8_Rb_treeIiiSt9_IdentityIiESt4lessIiESaIiEE11_M_leftmostEv
FNDA:1,_ZNSt8_Rb_treeIiiSt9_IdentityIiESt4lessIiESaIiEE11_M_leftmostEv
FN:718,_ZNSt8_Rb_treeINSt7__cxx1112basic_stringIcSt11char_traitsIcESaIcEEESt4pairIKS5_S6_IiiEESt10_Select1stIS9_ESt4lessIS5_ESaIS9_EE11_M_leftmostEv
FNDA:0,_ZNSt8_Rb_treeINSt7__cxx1112basic_stringIcSt11char_traitsIcESaIcEEESt4pairIKS5_S6_IiiEESt10_Select1stIS9_ESt4lessIS5_ESaIS9_EE11_M_leftmostEv
FN:726,_ZNSt8_Rb_treeINSt7__cxx1112basic_stringIcSt11char_traitsIcESaIcEEESt4pairIKS5_S6_IiiEESt10_Select1stIS9_ESt4lessIS5_ESaIS9_EE12_M_rightmostEv
FNDA:4,_ZNSt8_Rb_treeINSt7__cxx1112basic_stringIcSt11char_traitsIcESaIcEEESt4pairIKS5_S6_IiiEESt10_Select1stIS9_ESt4lessIS5_ESaIS9_EE12_M_rightmostEv
FN:726,_ZNSt8_Rb_treeIiiSt9_IdentityIiESt4lessIiESaIiEE12_M_rightmostEv
FNDA:1,_ZNSt8_Rb_treeIiiSt9_IdentityIiESt4lessIiESaIiEE12_M_rightmostEv
FN:734,_ZNKSt8_Rb_treeIiiSt9_IdentityIiESt4lessIiESaIiEE9_M_mbeginEv
FNDA:72,_ZNKSt8_Rb_treeIiiSt9_IdentityIiESt4lessIiESaIiEE9_M_mbeginEv
FN:734,_ZNKSt8_Rb_treeINSt7__cxx1112basic_stringIcSt11char_traitsIcESaIcEEESt4pairIKS5_S6_IiiEESt10_Select1stIS9_ESt4lessIS5_ESaIS9_EE9_M_mbeginEv
FNDA:31,_ZNKSt8_Rb_treeINSt7__cxx1112basic_stringIcSt11char_traitsIcESaIcEEESt4pairIKS5_S6_IiiEESt10_Select1stIS9_ESt4lessIS5_ESaIS9_EE9_M_mbeginEv
FN:738,_ZNSt8_Rb_treeINSt7__cxx1112basic_stringIcSt11char_traitsIcESaIcEEESt4pairIKS5_S6_IiiEESt10_Select1stIS9_ESt4lessIS5_ESaIS9_EE8_M_beginEv
FNDA:31,_ZNSt8_Rb_treeINSt7__cxx1112basic_stringIcSt11char_traitsIcESaIcEEESt4pairIKS5_S6_IiiEESt10_Select1stIS9_ESt4lessIS5_ESaIS9_EE8_M_beginEv
FN:738,_ZNSt8_Rb_treeIiiSt9_IdentityIiESt4lessIiESaIiEE8_M_beginEv
FNDA:71,_ZNSt8_Rb_treeIiiSt9_IdentityIiESt4lessIiESaIiEE8_M_beginEv
FN:742,_ZNKSt8_Rb_treeIiiSt9_IdentityIiESt4lessIiESaIiEE8_M_beginEv
FNDA:16,_ZNKSt8_Rb_treeIiiSt9_IdentityIiESt4lessIiESaIiEE8_M_beginEv
FN:749,_ZNSt8_Rb_treeINSt7__cxx1112basic_stringIcSt11char_traitsIcESaIcEEESt4pairIKS5_S6_IiiEESt10_Select1stIS9_ESt4lessIS5_ESaIS9_EE6_M_endEv
FNDA:35,_ZNSt8_Rb_treeINSt7__cxx1112basic_stringIcSt11char_traitsIcESaIcEEESt4pairIKS5_S6_IiiEESt10_Select1stIS9_ESt4lessIS5_ESaIS9_EE6_M_endEv
FN:749,_ZNSt8_Rb_treeIiiSt9_IdentityIiESt4lessIiESaIiEE6_M_endEv
FNDA:50,_ZNSt8_Rb_treeIiiSt9_IdentityIiESt4lessIiESaIiEE6_M_endEv
FN:753,_ZNKSt8_Rb_treeIiiSt9_IdentityIiESt4lessIiESaIiEE6_M_endEv
FNDA:16,_ZNKSt8_Rb_treeIiiSt9_IdentityIiESt4lessIiESaIiEE6_M_endEv
FN:757,_ZNSt8_Rb_treeINSt7__cxx1112basic_stringIcSt11char_traitsIcESaIcEEESt4pairIKS5_S6_IiiEESt10_Select1stIS9_ESt4lessIS5_ESaIS9_EE6_S_keyEPKSt13_Rb_tree_nodeIS9_E
FNDA:35,_ZNSt8_Rb_treeINSt7__cxx1112basic_stringIcSt11char_traitsIcESaIcEEESt4pairIKS5_S6_IiiEESt10_Select1stIS9_ESt4lessIS5_ESaIS9_EE6_S_keyEPKSt13_Rb_tree_nodeIS9_E
FN:757,_ZNSt8_Rb_treeIiiSt9_IdentityIiESt4lessIiESaIiEE6_S_keyEPKSt13_Rb_tree_nodeIiE
FNDA:76,_ZNSt8_Rb_treeIiiSt9_IdentityIiESt4lessIiESaIiEE6_S_keyEPKSt13_Rb_tree_nodeIiE
FN:779,_ZNSt8_Rb_treeINSt7__cxx1112basic_stringIcSt11char_traitsIcESaIcEEESt4pairIKS5_S6_IiiEESt10_Select1stIS9_ESt4lessIS5_ESaIS9_EE7_S_leftEPSt18_Rb_tree_node_base
FNDA:14,_ZNSt8_Rb_treeINSt7__cxx1112basic_stringIcSt11char_traitsIcESaIcEEESt4pairIKS5_S6_IiiEESt10_Select1stIS9_ESt4lessIS5_ESaIS9_EE7_S_leftEPSt18_Rb_tree_node_base
FN:779,_ZNSt8_Rb_treeIiiSt9_IdentityIiESt4lessIiESaIiEE7_S_leftEPSt18_Rb_tree_node_base
FNDA:35,_ZNSt8_Rb_treeIiiSt9_IdentityIiESt4lessIiESaIiEE7_S_leftEPSt18_Rb_tree_node_base
FN:783,_ZNSt8_Rb_treeIiiSt9_IdentityIiESt4lessIiESaIiEE7_S_leftEPKSt18_Rb_tree_node_base
FNDA:14,_ZNSt8_Rb_treeIiiSt9_IdentityIiESt4lessIiESaIiEE7_S_leftEPKSt18_Rb_tree_node_base
FN:787,_ZNSt8_Rb_treeINSt7__cxx1112basic_stringIcSt11char_traitsIcESaIcEEESt4pairIKS5_S6_IiiEESt10_Select1stIS9_ESt4lessIS5_ESaIS9_EE8_S_rightEPSt18_Rb_tree_node_base
FNDA:11,_ZNSt8_Rb_treeINSt7__cxx1112basic_stringIcSt11char_traitsIcESaIcEEESt4pairIKS5_S6_IiiEESt10_Select1stIS9_ESt4lessIS5_ESaIS9_EE8_S_rightEPSt18_Rb_tree_node_base
FN:787,_ZNSt8_Rb_treeIiiSt9_IdentityIiESt4lessIiESaIiEE8_S_rightEPSt18_Rb_tree_node_base
FNDA:30,_ZNSt8_Rb_treeIiiSt9_IdentityIiESt4lessIiESaIiEE8_S_rightEPSt18_Rb_tree_node_base
FN:791,_ZNSt8_Rb_treeIiiSt9_IdentityIiESt4lessIiESaIiEE8_S_rightEPKSt18_Rb_tree_node_base
FNDA:9,_ZNSt8_Rb_treeIiiSt9_IdentityIiESt4lessIiESaIiEE8_S_rightEPKSt18_Rb_tree_node_base
FN:795,_ZNSt8_Rb_treeIiiSt9_IdentityIiESt4lessIiESaIiEE6_S_keyEPKSt18_Rb_tree_node_base
FNDA:16,_ZNSt8_Rb_treeIiiSt9_IdentityIiESt4lessIiESaIiEE6_S_keyEPKSt18_Rb_tree_node_base
FN:795,_ZNSt8_Rb_treeINSt7__cxx1112basic_stringIcSt11char_traitsIcESaIcEEESt4pairIKS5_S6_IiiEESt10_Select1stIS9_ESt4lessIS5_ESaIS9_EE6_S_keyEPKSt18_Rb_tree_node_base
FNDA:9,_ZNSt8_Rb_treeINSt7__cxx1112basic_stringIcSt11char_traitsIcESaIcEEESt4pairIKS5_S6_IiiEESt10_Select1stIS9_ESt4lessIS5_ESaIS9_EE6_S_keyEPKSt18_Rb_tree_node_base
FN:799,_ZNSt8_Rb_treeIiiSt9_IdentityIiESt4lessIiESaIiEE10_S_minimumEPSt18_Rb_tree_node_base
FNDA:1,_ZNSt8_Rb_treeIiiSt9_IdentityIiESt4lessIiESaIiEE10_S_minimumEPSt18_Rb_tree_node_base
FN:807,_ZNSt8_Rb_treeIiiSt9_IdentityIiESt4lessIiESaIiEE10_S_maximumEPSt18_Rb_tree_node_base
FNDA:1,_ZNSt8_Rb_treeIiiSt9_IdentityIiESt4lessIiESaIiEE10_S_maximumEPSt18_Rb_tree_node_base
FN:887,_ZNSt8_Rb_treeIiiSt9_IdentityIiESt4lessIiESaIiEE7_M_copyILb0ENS5_11_Alloc_nodeEEEPSt13_Rb_tree_nodeIiERKS5_RT0_
FNDA:1,_ZNSt8_Rb_treeIiiSt9_IdentityIiESt4lessIiESaIiEE7_M_copyILb0ENS5_11_Alloc_nodeEEEPSt13_Rb_tree_nodeIiERKS5_RT0_
FN:898,_ZNSt8_Rb_treeIiiSt9_IdentityIiESt4lessIiESaIiEE7_M_copyERKS5_
FNDA:1,_ZNSt8_Rb_treeIiiSt9_IdentityIiESt4lessIiESaIiEE7_M_copyERKS5_
FN:928,_ZNSt8_Rb_treeIiiSt9_IdentityIiESt4lessIiESaIiEEC2Ev
FNDA:25,_ZNSt8_Rb_treeIiiSt9_IdentityIiESt4lessIiESaIiEEC2Ev
FN:928,_ZNSt8_Rb_treeINSt7__cxx1112basic_stringIcSt11char_traitsIcESaIcEEESt4pairIKS5_S6_IiiEESt10_Select1stIS9_ESt4lessIS5_ESaIS9_EEC2Ev
FNDA:4,_ZNSt8_Rb_treeINSt7__cxx1112basic_stringIcSt11char_traitsIcESaIcEEESt4pairIKS5_S6_IiiEESt10_Select1stIS9_ESt4lessIS5_ESaIS9_EEC2Ev
FN:935,_ZNSt8_Rb_treeIiiSt9_IdentityIiESt4lessIiESaIiEEC2ERKS5_
FNDA:6,_ZNSt8_Rb_treeIiiSt9_IdentityIiESt4lessIiESaIiEEC2ERKS5_
FN:954,_ZNSt8_Rb_treeIiiSt9_IdentityIiESt4lessIiESaIiEEC2EOS5_
FNDA:0,_ZNSt8_Rb_treeIiiSt9_IdentityIiESt4lessIiESaIiEEC2EOS5_
FN:983,_ZNSt8_Rb_treeINSt7__cxx1112basic_stringIcSt11char_traitsIcESaIcEEESt4pairIKS5_S6_IiiEESt10_Select1stIS9_ESt4lessIS5_ESaIS9_EED2Ev
FNDA:4,_ZNSt8_Rb_treeINSt7__cxx1112basic_stringIcSt11char_traitsIcESaIcEEESt4pairIKS5_S6_IiiEESt10_Select1stIS9_ESt4lessIS5_ESaIS9_EED2Ev
FN:983,_ZNSt8_Rb_treeIiiSt9_IdentityIiESt4lessIiESaIiEED2Ev
FNDA:31,_ZNSt8_Rb_treeIiiSt9_IdentityIiESt4lessIiESaIiEED2Ev
FN:991,_ZNKSt8_Rb_treeINSt7__cxx1112basic_stringIcSt11char_traitsIcESaIcEEESt4pairIKS5_S6_IiiEESt10_Select1stIS9_ESt4lessIS5_ESaIS9_EE8key_compEv
FNDA:0,_ZNKSt8_Rb_treeINSt7__cxx1112basic_stringIcSt11char_traitsIcESaIcEEESt4pairIKS5_S6_IiiEESt10_Select1stIS9_ESt4lessIS5_ESaIS9_EE8key_compEv
FN:995,_ZNSt8_Rb_treeIiiSt9_IdentityIiESt4lessIiESaIiEE5beginEv
FNDA:30,_ZNSt8_Rb_treeIiiSt9_IdentityIiESt4lessIiESaIiEE5beginEv
FN:995,_ZNSt8_Rb_treeINSt7__cxx1112basic_stringIcSt11char_traitsIcESaIcEEESt4pairIKS5_S6_IiiEESt10_Select1stIS9_ESt4lessIS5_ESaIS9_EE5beginEv
FNDA:8,_ZNSt8_Rb_treeINSt7__cxx1112basic_stringIcSt11char_traitsIcESaIcEEESt4pairIKS5_S6_IiiEESt10_Select1stIS9_ESt4lessIS5_ESaIS9_EE5beginEv
FN:999,_ZNKSt8_Rb_treeIiiSt9_IdentityIiESt4lessIiESaIiEE5beginEv
FNDA:12,_ZNKSt8_Rb_treeIiiSt9_IdentityIiESt4lessIiESaIiEE5beginEv
FN:1003,_ZNSt8_Rb_treeIiiSt9_IdentityIiESt4lessIiESaIiEE3endEv
FNDA:12,_ZNSt8_Rb_treeIiiSt9_IdentityIiESt4lessIiESaIiEE3endEv
FN:1003,_ZNSt8_Rb_treeINSt7__cxx1112basic_stringIcSt11char_traitsIcESaIcEEESt4pairIKS5_S6_IiiEESt10_Select1stIS9_ESt4lessIS5_ESaIS9_EE3endEv
FNDA:44,_ZNSt8_Rb_treeINSt7__cxx1112basic_stringIcSt11char_traitsIcESaIcEEESt4pairIKS5_S6_IiiEESt10_Select1stIS9_ESt4lessIS5_ESaIS9_EE3endEv
FN:1007,_ZNKSt8_Rb_treeIiiSt9_IdentityIiESt4lessIiESaIiEE3endEv
FNDA:51,_ZNKSt8_Rb_treeIiiSt9_IdentityIiESt4lessIiESaIiEE3endEv
FN:1027,_ZNKSt8_Rb_treeIiiSt9_IdentityIiESt4lessIiESaIiEE5emptyEv
FNDA:11,_ZNKSt8_Rb_treeIiiSt9_IdentityIiESt4lessIiESaIiEE5emptyEv
FN:1031,_ZNKSt8_Rb_treeIiiSt9_IdentityIiESt4lessIiESaIiEE4sizeEv
FNDA:26,_ZNKSt8_Rb_treeIiiSt9_IdentityIiESt4lessIiESaIiEE4sizeEv
FN:1031,_ZNKSt8_Rb_treeINSt7__cxx1112basic_stringIcSt11char_traitsIcESaIcEEESt4pairIKS5_S6_IiiEESt10_Select1stIS9_ESt4lessIS5_ESaIS9_EE4sizeEv
FNDA:13,_ZNKSt8_Rb_treeINSt7__cxx1112basic_stringIcSt11char_traitsIcESaIcEEESt4pairIKS5_S6_IiiEESt10_Select1stIS9_ESt4lessIS5_ESaIS9_EE4sizeEv
FN:1252,_ZNSt8_Rb_treeIiiSt9_IdentityIiESt4lessIiESaIiEE5clearEv
FNDA:9,_ZNSt8_Rb_treeIiiSt9_IdentityIiESt4lessIiESaIiEE5clearEv
FN:1252,_ZNSt8_Rb_treeINSt7__cxx1112basic_stringIcSt11char_traitsIcESaIcEEESt4pairIKS5_S6_IiiEESt10_Select1stIS9_ESt4lessIS5_ESaIS9_EE5clearEv
FNDA:2,_ZNSt8_Rb_treeINSt7__cxx1112basic_stringIcSt11char_traitsIcESaIcEEESt4pairIKS5_S6_IiiEESt10_Select1stIS9_ESt4lessIS5_ESaIS9_EE5clearEv
FN:1269,_ZNSt8_Rb_treeINSt7__cxx1112basic_stringIcSt11char_traitsIcESaIcEEESt4pairIKS5_S6_IiiEESt10_Select1stIS9_ESt4lessIS5_ESaIS9_EE11lower_boundERS7_
FNDA:5,_ZNSt8_Rb_treeINSt7__cxx1112basic_stringIcSt11char_traitsIcESaIcEEESt4pairIKS5_S6_IiiEESt10_Select1stIS9_ESt4lessIS5_ESaIS9_EE11lower_boundERS7_
FN:1771,_ZNSt8_Rb_treeIiiSt9_IdentityIiESt4lessIiESaIiEE10_M_insert_IiNS5_11_Alloc_nodeEEESt17_Rb_tree_iteratorIiEPSt18_Rb_tree_node_baseSB_OT_RT0_
FNDA:7,_ZNSt8_Rb_treeIiiSt9_IdentityIiESt4lessIiESaIiEE10_M_insert_IiNS5_11_Alloc_nodeEEESt17_Rb_tree_iteratorIiEPSt18_Rb_tree_node_baseSB_OT_RT0_
FN:1771,_ZNSt8_Rb_treeIiiSt9_IdentityIiESt4lessIiESaIiEE10_M_insert_IRKiNS5_11_Alloc_nodeEEESt17_Rb_tree_iteratorIiEPSt18_Rb_tree_node_baseSD_OT_RT0_
FNDA:11,_ZNSt8_Rb_treeIiiSt9_IdentityIiESt4lessIiESaIiEE10_M_insert_IRKiNS5_11_Alloc_nodeEEESt17_Rb_tree_iteratorIiEPSt18_Rb_tree_node_baseSD_OT_RT0_
FN:1845,_ZNSt8_Rb_treeIiiSt9_IdentityIiESt4lessIiESaIiEE7_M_copyILb0ENS5_11_Alloc_nodeEEEPSt13_Rb_tree_nodeIiESA_PSt18_Rb_tree_node_baseRT0_
FNDA:1,_ZNSt8_Rb_treeIiiSt9_IdentityIiESt4lessIiESaIiEE7_M_copyILb0ENS5_11_Alloc_nodeEEEPSt13_Rb_tree_nodeIiESA_PSt18_Rb_tree_node_baseRT0_
FN:1883,_ZNSt8_Rb_treeIiiSt9_IdentityIiESt4lessIiESaIiEE8_M_eraseEPSt13_Rb_tree_nodeIiE
FNDA:55,_ZNSt8_Rb_treeIiiSt9_IdentityIiESt4lessIiESaIiEE8_M_eraseEPSt13_Rb_tree_nodeIiE
FN:1883,_ZNSt8_Rb_treeINSt7__cxx1112basic_stringIcSt11char_traitsIcESaIcEEESt4pairIKS5_S6_IiiEESt10_Select1stIS9_ESt4lessIS5_ESaIS9_EE8_M_eraseEPSt13_Rb_tree_nodeIS9_E
FNDA:9,_ZNSt8_Rb_treeINSt7__cxx1112basic_stringIcSt11char_traitsIcESaIcEEESt4pairIKS5_S6_IiiEESt10_Select1stIS9_ESt4lessIS5_ESaIS9_EE8_M_eraseEPSt13_Rb_tree_nodeIS9_E
FN:1900,_ZNSt8_Rb_treeINSt7__cxx1112basic_stringIcSt11char_traitsIcESaIcEEESt4pairIKS5_S6_IiiEESt10_Select1stIS9_ESt4lessIS5_ESaIS9_EE14_M_lower_boundEPSt13_Rb_tree_nodeIS9_EPSt18_Rb_tree_node_baseRS7_
FNDA:22,_ZNSt8_Rb_treeINSt7__cxx1112basic_stringIcSt11char_traitsIcESaIcEEESt4pairIKS5_S6_IiiEESt10_Select1stIS9_ESt4lessIS5_ESaIS9_EE14_M_lower_boundEPSt13_Rb_tree_nodeIS9_EPSt18_Rb_tree_node_baseRS7_
FN:1900,_ZNSt8_Rb_treeIiiSt9_IdentityIiESt4lessIiESaIiEE14_M_lower_boundEPSt13_Rb_tree_nodeIiEPSt18_Rb_tree_node_baseRKi
FNDA:13,_ZNSt8_Rb_treeIiiSt9_IdentityIiESt4lessIiESaIiEE14_M_lower_boundEPSt13_Rb_tree_nodeIiEPSt18_Rb_tree_node_baseRKi
FN:1916,_ZNKSt8_Rb_treeIiiSt9_IdentityIiESt4lessIiESaIiEE14_M_lower_boundEPKSt13_Rb_tree_nodeIiEPKSt18_Rb_tree_node_baseRKi
FNDA:16,_ZNKSt8_Rb_treeIiiSt9_IdentityIiESt4lessIiESaIiEE14_M_lower_boundEPKSt13_Rb_tree_nodeIiEPKSt18_Rb_tree_node_baseRKi
FN:1932,_ZNSt8_Rb_treeINSt7__cxx1112basic_stringIcSt11char_traitsIcESaIcEEESt4pairIKS5_S6_IiiEESt10_Select1stIS9_ESt4lessIS5_ESaIS9_EE14_M_upper_boundEPSt13_Rb_tree_nodeIS9_EPSt18_Rb_tree_node_baseRS7_
FNDA:4,_ZNSt8_Rb_treeINSt7__cxx1112basic_stringIcSt11char_traitsIcESaIcEEESt4pairIKS5_S6_IiiEESt10_Select1stIS9_ESt4lessIS5_ESaIS9_EE14_M_upper_boundEPSt13_Rb_tree_nodeIS9_EPSt18_Rb_tree_node_baseRS7_
FN:1932,_ZNSt8_Rb_treeIiiSt9_IdentityIiESt4lessIiESaIiEE14_M_upper_boundEPSt13_Rb_tree_nodeIiEPSt18_Rb_tree_node_baseRKi
FNDA:13,_ZNSt8_Rb_treeIiiSt9_IdentityIiESt4lessIiESaIiEE14_M_upper_boundEPSt13_Rb_tree_nodeIiEPSt18_Rb_tree_node_baseRKi
FN:1966,_ZNSt8_Rb_treeINSt7__cxx1112basic_stringIcSt11char_traitsIcESaIcEEESt4pairIKS5_S6_IiiEESt10_Select1stIS9_ESt4lessIS5_ESaIS9_EE11equal_rangeERS7_
FNDA:4,_ZNSt8_Rb_treeINSt7__cxx1112basic_stringIcSt11char_traitsIcESaIcEEESt4pairIKS5_S6_IiiEESt10_Select1stIS9_ESt4lessIS5_ESaIS9_EE11equal_rangeERS7_
FN:1966,_ZNSt8_Rb_treeIiiSt9_IdentityIiESt4lessIiESaIiEE11equal_rangeERKi
FNDA:13,_ZNSt8_Rb_treeIiiSt9_IdentityIiESt4lessIiESaIiEE11equal_rangeERKi
FN:2061,_ZNSt8_Rb_treeIiiSt9_IdentityIiESt4lessIiESaIiEE24_M_get_insert_unique_posERKi
FNDA:18,_ZNSt8_Rb_treeIiiSt9_IdentityIiESt4lessIiESaIiEE24_M_get_insert_unique_posERKi
FN:2061,_ZNSt8_Rb_treeINSt7__cxx1112basic_stringIcSt11char_traitsIcESaIcEEESt4pairIKS5_S6_IiiEESt10_Select1stIS9_ESt4lessIS5_ESaIS9_EE24_M_get_insert_unique_posERS7_
FNDA:3,_ZNSt8_Rb_treeINSt7__cxx1112basic_stringIcSt11char_traitsIcESaIcEEESt4pairIKS5_S6_IiiEESt10_Select1stIS9_ESt4lessIS5_ESaIS9_EE24_M_get_insert_unique_posERS7_
FN:2115,_ZNSt8_Rb_treeIiiSt9_IdentityIiESt4lessIiESaIiEE16_M_insert_uniqueIRKiEESt4pairISt17_Rb_tree_iteratorIiEbEOT_
FNDA:11,_ZNSt8_Rb_treeIiiSt9_IdentityIiESt4lessIiESaIiEE16_M_insert_uniqueIRKiEESt4pairISt17_Rb_tree_iteratorIiEbEOT_
FN:2115,_ZNSt8_Rb_treeIiiSt9_IdentityIiESt4lessIiESaIiEE16_M_insert_uniqueIiEESt4pairISt17_Rb_tree_iteratorIiEbEOT_
FNDA:7,_ZNSt8_Rb_treeIiiSt9_IdentityIiESt4lessIiESaIiEE16_M_insert_uniqueIiEESt4pairISt17_Rb_tree_iteratorIiEbEOT_
FN:2163,_ZNSt8_Rb_treeINSt7__cxx1112basic_stringIcSt11char_traitsIcESaIcEEESt4pairIKS5_S6_IiiEESt10_Select1stIS9_ESt4lessIS5_ESaIS9_EE29_M_get_insert_hint_unique_posESt23_Rb_tree_const_iteratorIS9_ERS7_
FNDA:5,_ZNSt8_Rb_treeINSt7__cxx1112basic_stringIcSt11char_traitsIcESaIcEEESt4pairIKS5_S6_IiiEESt10_Select1stIS9_ESt4lessIS5_ESaIS9_EE29_M_get_insert_hint_unique_posESt23_Rb_tree_const_iteratorIS9_ERS7_
FN:2330,_ZNSt8_Rb_treeINSt7__cxx1112basic_stringIcSt11char_traitsIcESaIcEEESt4pairIKS5_S6_IiiEESt10_Select1stIS9_ESt4lessIS5_ESaIS9_EE14_M_insert_nodeEPSt18_Rb_tree_node_baseSH_PSt13_Rb_tree_nodeIS9_E
FNDA:5,_ZNSt8_Rb_treeINSt7__cxx1112basic_stringIcSt11char_traitsIcESaIcEEESt4pairIKS5_S6_IiiEESt10_Select1stIS9_ESt4lessIS5_ESaIS9_EE14_M_insert_nodeEPSt18_Rb_tree_node_baseSH_PSt13_Rb_tree_nodeIS9_E
FN:2428,_ZNSt8_Rb_treeINSt7__cxx1112basic_stringIcSt11char_traitsIcESaIcEEESt4pairIKS5_S6_IiiEESt10_Select1stIS9_ESt4lessIS5_ESaIS9_EE22_M_emplace_hint_uniqueIJRKSt21piecewise_construct_tSt5tupleIJRS7_EESK_IJEEEEESt17_Rb_tree_iteratorIS9_ESt23_Rb_tree_const_iteratorIS9_EDpOT_
FNDA:5,_ZNSt8_Rb_treeINSt7__cxx1112basic_stringIcSt11char_traitsIcESaIcEEESt4pairIKS5_S6_IiiEESt10_Select1stIS9_ESt4lessIS5_ESaIS9_EE22_M_emplace_hint_uniqueIJRKSt21piecewise_construct_tSt5tupleIJRS7_EESK_IJEEEEESt17_Rb_tree_iteratorIS9_ESt23_Rb_tree_const_iteratorIS9_EDpOT_
FN:2480,_ZNSt8_Rb_treeIiiSt9_IdentityIiESt4lessIiESaIiEE12_M_erase_auxESt23_Rb_tree_const_iteratorIiE
FNDA:4,_ZNSt8_Rb_treeIiiSt9_IdentityIiESt4lessIiESaIiEE12_M_erase_auxESt23_Rb_tree_const_iteratorIiE
FN:2480,_ZNSt8_Rb_treeINSt7__cxx1112basic_stringIcSt11char_traitsIcESaIcEEESt4pairIKS5_S6_IiiEESt10_Select1stIS9_ESt4lessIS5_ESaIS9_EE12_M_erase_auxESt23_Rb_tree_const_iteratorIS9_E
FNDA:2,_ZNSt8_Rb_treeINSt7__cxx1112basic_stringIcSt11char_traitsIcESaIcEEESt4pairIKS5_S6_IiiEESt10_Select1stIS9_ESt4lessIS5_ESaIS9_EE12_M_erase_auxESt23_Rb_tree_const_iteratorIS9_E
FN:2494,_ZNSt8_Rb_treeIiiSt9_IdentityIiESt4lessIiESaIiEE12_M_erase_auxESt23_Rb_tree_const_iteratorIiES7_
FNDA:13,_ZNSt8_Rb_treeIiiSt9_IdentityIiESt4lessIiESaIiEE12_M_erase_auxESt23_Rb_tree_const_iteratorIiES7_
FN:2494,_ZNSt8_Rb_treeINSt7__cxx1112basic_stringIcSt11char_traitsIcESaIcEEESt4pairIKS5_S6_IiiEESt10_Select1stIS9_ESt4lessIS5_ESaIS9_EE12_M_erase_auxESt23_Rb_tree_const_iteratorIS9_ESH_
FNDA:4,_ZNSt8_Rb_treeINSt7__cxx1112basic_stringIcSt11char_traitsIcESaIcEEESt4pairIKS5_S6_IiiEESt10_Select1stIS9_ESt4lessIS5_ESaIS9_EE12_M_erase_auxESt23_Rb_tree_const_iteratorIS9_ESH_
FN:2507,_ZNSt8_Rb_treeINSt7__cxx1112basic_stringIcSt11char_traitsIcESaIcEEESt4pairIKS5_S6_IiiEESt10_Select1stIS9_ESt4lessIS5_ESaIS9_EE5eraseERS7_
FNDA:4,_ZNSt8_Rb_treeINSt7__cxx1112basic_stringIcSt11char_traitsIcESaIcEEESt4pairIKS5_S6_IiiEESt10_Select1stIS9_ESt4lessIS5_ESaIS9_EE5eraseERS7_
FN:2507,_ZNSt8_Rb_treeIiiSt9_IdentityIiESt4lessIiESaIiEE5eraseERKi
FNDA:13,_ZNSt8_Rb_treeIiiSt9_IdentityIiESt4lessIiESaIiEE5eraseERKi
FN:2520,_ZNSt8_Rb_treeINSt7__cxx1112basic_stringIcSt11char_traitsIcESaIcEEESt4pairIKS5_S6_IiiEESt10_Select1stIS9_ESt4lessIS5_ESaIS9_EE4findERS7_
FNDA:13,_ZNSt8_Rb_treeINSt7__cxx1112basic_stringIcSt11char_traitsIcESaIcEEESt4pairIKS5_S6_IiiEESt10_Select1stIS9_ESt4lessIS5_ESaIS9_EE4findERS7_
FN:2533,_ZNKSt8_Rb_treeIiiSt9_IdentityIiESt4lessIiESaIiEE4findERKi
FNDA:16,_ZNKSt8_Rb_treeIiiSt9_IdentityIiESt4lessIiESaIiEE4findERKi
DA:112,1
DA:114,1
DA:115,1
DA:126,1
DA:128,1
DA:129,1
DA:146,25
DA:150,25
DA:146,6
DA:150,6
DA:152,6
DA:154,6
DA:160,0
DA:163,0
DA:173,37
DA:174,37
DA:175,37
DA:176,37
DA:177,37
DA:180,0
DA:181,0
DA:182,0
DA:183,0
DA:186,0
DA:187,0
DA:189,0
DA:193,0
DA:195,0
DA:196,0
DA:197,0
DA:198,0
DA:199,0
DA:200,0
DA:202,0
DA:203,0
DA:206,48
DA:208,48
DA:209,48
DA:210,48
DA:211,48
DA:212,48
DA:234,39
DA:235,39
DA:234,20
DA:235,20
DA:238,35
DA:239,35
DA:238,83
DA:239,83
DA:273,91
DA:274,91
DA:273,104
DA:274,104
DA:277,6
DA:278,6
DA:281,4
DA:282,4
DA:285,1
DA:287,1
DA:288,1
DA:300,0
DA:302,0
DA:303,0
DA:300,0
DA:302,0
DA:303,0
DA:315,17
DA:316,17
DA:315,26
DA:316,26
DA:320,10
DA:321,10
DA:347,79
DA:348,79
DA:350,69
DA:351,69
DA:350,21
DA:351,21
DA:354,5
DA:355,5
DA:358,7
DA:359,7
DA:366,2
DA:368,2
DA:369,2
DA:373,4
DA:375,4
DA:376,4
DA:377,4
DA:373,2
DA:375,2
DA:376,2
DA:377,2
DA:396,8
DA:397,8
DA:396,57
DA:397,57
DA:401,4
DA:402,4
DA:401,17
DA:402,17
DA:523,19
DA:524,19
DA:528,7
DA:529,7
DA:528,12
DA:529,12
DA:547,76
DA:548,76
DA:547,20
DA:548,20
DA:560,19
DA:561,19
DA:560,5
DA:561,5
DA:564,19
DA:565,19
DA:564,5
DA:565,5
DA:590,7
DA:594,7
DA:595,7
DA:605,7
DA:590,12
DA:594,12
DA:595,12
DA:605,12
DA:590,5
DA:594,5
DA:595,5
DA:599,0
DA:601,0
DA:602,0
DA:603,0
DA:605,5
DA:609,7
DA:611,7
DA:612,7
DA:613,7
DA:609,12
DA:611,12
DA:612,12
DA:613,12
DA:609,5
DA:611,5
DA:612,5
DA:613,5
DA:618,19
DA:623,19
DA:624,19
DA:626,19
DA:618,5
DA:623,5
DA:624,5
DA:626,5
DA:629,19
DA:631,19
DA:632,19
DA:633,19
DA:629,5
DA:631,5
DA:632,5
DA:633,5
DA:637,1
DA:645,1
DA:646,1
DA:647,1
DA:648,1
DA:649,1
DA:667,25
DA:671,25
DA:672,25
DA:667,4
DA:671,4
DA:672,4
DA:674,6
DA:676,6
DA:677,6
DA:678,6
DA:685,0
DA:710,1
DA:711,1
DA:714,6
DA:715,6
DA:718,1
DA:719,1
DA:718,0
DA:719,0
DA:726,1
DA:727,1
DA:726,4
DA:727,4
DA:734,72
DA:735,72
DA:734,31
DA:735,31
DA:738,71
DA:739,71
DA:738,31
DA:739,31
DA:742,16
DA:745,16
DA:749,50
DA:750,50
DA:749,35
DA:750,35
DA:753,16
DA:754,16
DA:757,76
DA:775,76
DA:757,35
DA:775,35
DA:779,35
DA:780,35
DA:779,14
DA:780,14
DA:783,14
DA:784,14
DA:787,30
DA:788,30
DA:787,11
DA:788,11
DA:791,9
DA:792,9
DA:795,16
DA:796,16
DA:795,9
DA:796,9
DA:799,1
DA:800,1
DA:807,1
DA:808,1
DA:887,1
DA:890,1
DA:891,1
DA:892,1
DA:893,1
DA:894,1
DA:898,1
DA:900,1
DA:901,2
DA:928,25
DA:928,4
DA:935,6
DA:936,6
DA:938,6
DA:939,1
DA:940,6
DA:954,0
DA:983,31
DA:984,31
DA:983,4
DA:984,4
DA:991,0
DA:992,0
DA:995,30
DA:996,30
DA:995,8
DA:996,8
DA:999,12
DA:1000,12
DA:1003,12
DA:1004,12
DA:1003,44
DA:1004,44
DA:1007,51
DA:1008,51
DA:1027,11
DA:1028,11
DA:1031,26
DA:1032,26
DA:1031,13
DA:1032,13
DA:1252,9
DA:1254,9
DA:1255,9
DA:1256,9
DA:1252,2
DA:1254,2
DA:1255,2
DA:1256,2
DA:1269,5
DA:1270,5
DA:1771,7
DA:1780,7
DA:1781,14
DA:1784,7
DA:1786,7
DA:1787,7
DA:1788,7
DA:1789,7
DA:1771,11
DA:1780,11
DA:1781,22
DA:1784,11
DA:1786,11
DA:1787,11
DA:1788,11
DA:1789,11
DA:1845,1
DA:1849,1
DA:1850,1
DA:1854,1
DA:1855,0
DA:1856,0
DA:1857,1
DA:1858,1
DA:1860,1
DA:1862,0
DA:1863,0
DA:1864,0
DA:1865,0
DA:1866,0
DA:1868,0
DA:1869,0
DA:1872,0
DA:1874,0
DA:1875,0
DA:1877,1
DA:1883,55
DA:1887,70
DA:1889,15
DA:1890,15
DA:1891,15
DA:1892,15
DA:1894,55
DA:1883,9
DA:1887,12
DA:1889,3
DA:1890,3
DA:1891,3
DA:1892,3
DA:1894,9
DA:1900,13
DA:1904,13
DA:1905,0
DA:1906,0
DA:1908,0
DA:1909,13
DA:1900,22
DA:1904,31
DA:1905,9
DA:1906,5
DA:1908,4
DA:1909,22
DA:1916,16
DA:1920,39
DA:1921,23
DA:1922,14
DA:1924,9
DA:1925,16
DA:1932,13
DA:1936,13
DA:1937,0
DA:1938,0
DA:1940,0
DA:1941,13
DA:1932,4
DA:1936,6
DA:1937,2
DA:1938,2
DA:1940,0
DA:1941,4
DA:1966,13
DA:1969,13
DA:1970,13
DA:1971,17
DA:1973,17
DA:1974,1
DA:1975,16
DA:1976,3
DA:1979,13
DA:1980,13
DA:1981,13
DA:1982,13
DA:1983,13
DA:1984,13
DA:1985,26
DA:1988,0
DA:1989,0
DA:1966,4
DA:1969,4
DA:1970,4
DA:1971,4
DA:1973,4
DA:1974,0
DA:1975,4
DA:1976,0
DA:1979,4
DA:1980,4
DA:1981,4
DA:1982,4
DA:1983,4
DA:1984,4
DA:1985,8
DA:1988,0
DA:1989,0
DA:2061,3
DA:2065,3
DA:2066,3
DA:2067,3
DA:2068,3
DA:2070,0
DA:2071,0
DA:2072,0
DA:2074,3
DA:2075,3
DA:2077,3
DA:2078,3
DA:2080,0
DA:2082,0
DA:2083,0
DA:2084,0
DA:2061,18
DA:2065,18
DA:2066,18
DA:2067,18
DA:2068,22
DA:2070,4
DA:2071,4
DA:2072,4
DA:2074,18
DA:2075,18
DA:2077,17
DA:2078,17
DA:2080,0
DA:2082,1
DA:2083,1
DA:2084,0
DA:2115,7
DA:2124,7
DA:2126,7
DA:2128,7
DA:2129,7
DA:2131,7
DA:2134,0
DA:2115,11
DA:2124,11
DA:2126,11
DA:2128,11
DA:2129,11
DA:2131,11
DA:2134,0
DA:2163,5
DA:2167,5
DA:2171,5
DA:2173,5
DA:2174,5
DA:2175,2
DA:2177,3
DA:2179,0
DA:2182,0
DA:2183,0
DA:2184,0
DA:2185,0
DA:2187,0
DA:2188,0
DA:2190,0
DA:2193,0
DA:2195,0
DA:2198,0
DA:2199,0
DA:2200,0
DA:2201,0
DA:2203,0
DA:2204,0
DA:2206,0
DA:2209,0
DA:2213,0
DA:2330,5
DA:2333,5
DA:2334,10
DA:2337,5
DA:2338,5
DA:2339,5
DA:2340,5
DA:2428,5
DA:2431,5
DA:2435,5
DA:2437,5
DA:2438,5
DA:2440,0
DA:2441,0
DA:2443,0
DA:2445,0
DA:2446,0
DA:2480,4
DA:2485,4
DA:2486,4
DA:2487,4
DA:2488,4
DA:2489,4
DA:2480,2
DA:2485,2
DA:2486,2
DA:2487,2
DA:2488,2
DA:2489,2
DA:2494,13
DA:2497,13
DA:2498,9
DA:2500,8
DA:2501,4
DA:2502,13
DA:2494,4
DA:2497,4
DA:2498,2
DA:2500,4
DA:2501,2
DA:2502,4
DA:2507,13
DA:2510,13
DA:2511,13
DA:2512,13
DA:2513,13
DA:2507,4
DA:2510,4
DA:2511,4
DA:2512,4
DA:2513,4
DA:2520,13
DA:2523,13
DA:2524,26
DA:2525,5
DA:2526,31
DA:2533,16
DA:2536,16
DA:2537,32
DA:2538,11
DA:2539,43
end_of_record
SF:/usr/include/c++/11/bits/stl_pair.h
FN:232,_ZNSt4pairIiiEC2IiiLb1EEEv
FNDA:5,_ZNSt4pairIiiEC2IiiLb1EEEv
FN:314,_ZNSt4pairIKNSt7__cxx1112basic_stringIcSt11char_traitsIcESaIcEEES_IiiEEC2ERKS8_
FNDA:1,_ZNSt4pairIKNSt7__cxx1112basic_stringIcSt11char_traitsIcESaIcEEES_IiiEEC2ERKS8_
FN:322,_ZNSt4pairIPSt18_Rb_tree_node_baseS1_EC2IRS1_Lb1EEEOT_RKS1_
FNDA:0,_ZNSt4pairIPSt18_Rb_tree_node_baseS1_EC2IRS1_Lb1EEEOT_RKS1_
FN:336,_ZNSt4pairIPSt18_Rb_tree_node_baseS1_EC2IRS1_Lb1EEERKS1_OT_
FNDA:2,_ZNSt4pairIPSt18_Rb_tree_node_baseS1_EC2IRS1_Lb1EEERKS1_OT_
FN:352,_ZNSt4pairIPSt18_Rb_tree_node_baseS1_EC2IRPSt13_Rb_tree_nodeIS_IKNSt7__cxx1112basic_stringIcSt11char_traitsIcESaIcEEES_IiiEEERS1_Lb1EEEOT_OT0_
FNDA:3,_ZNSt4pairIPSt18_Rb_tree_node_baseS1_EC2IRPSt13_Rb_tree_nodeIS_IKNSt7__cxx1112basic_stringIcSt11char_traitsIcESaIcEEES_IiiEEERS1_Lb1EEEOT_OT0_
FN:352,_ZNSt4pairIPSt18_Rb_tree_node_baseS1_EC2IRS1_S4_Lb1EEEOT_OT0_
FNDA:0,_ZNSt4pairIPSt18_Rb_tree_node_baseS1_EC2IRS1_S4_Lb1EEEOT_OT0_
FN:352,_ZNSt4pairISt17_Rb_tree_iteratorIiES1_EC2IS1_S1_Lb1EEEOT_OT0_
FNDA:13,_ZNSt4pairISt17_Rb_tree_iteratorIiES1_EC2IS1_S1_Lb1EEEOT_OT0_
FN:352,_ZNSt4pairISt17_Rb_tree_iteratorIS_IKNSt7__cxx1112basic_stringIcSt11char_traitsIcESaIcEEES_IiiEEESA_EC2ISA_SA_Lb1EEEOT_OT0_
FNDA:4,_ZNSt4pairISt17_Rb_tree_iteratorIS_IKNSt7__cxx1112basic_stringIcSt11char_traitsIcESaIcEEES_IiiEEESA_EC2ISA_SA_Lb1EEEOT_OT0_
FN:352,_ZNSt4pairIPSt18_Rb_tree_node_baseS1_EC2IRPSt13_Rb_tree_nodeIiERS1_Lb1EEEOT_OT0_
FNDA:18,_ZNSt4pairIPSt18_Rb_tree_node_baseS1_EC2IRPSt13_Rb_tree_nodeIiERS1_Lb1EEEOT_OT0_
FN:352,_ZNSt4pairISt17_Rb_tree_iteratorIiEbEC2IS1_bLb1EEEOT_OT0_
FNDA:18,_ZNSt4pairISt17_Rb_tree_iteratorIiEbEC2IS1_bLb1EEEOT_OT0_
FN:352,_ZNSt4pairISt23_Rb_tree_const_iteratorIiEbEC2IRSt17_Rb_tree_iteratorIiERbLb1EEEOT_OT0_
FNDA:18,_ZNSt4pairISt23_Rb_tree_const_iteratorIiEbEC2IRSt17_Rb_tree_iteratorIiERbLb1EEEOT_OT0_
FN:352,_ZNSt4pairIiiEC2IRiS2_Lb1EEEOT_OT0_
FNDA:5,_ZNSt4pairIiiEC2IRiS2_Lb1EEEOT_OT0_
FN:401,_ZNSt4pairIiiEaSEOS0_
FNDA:5,_ZNSt4pairIiiEaSEOS0_
DA:232,5
DA:233,5
DA:314,1
DA:322,0
DA:323,0
DA:336,2
DA:337,2
DA:352,3
DA:353,3
DA:352,0
DA:353,0
DA:352,13
DA:353,13
DA:352,4
DA:353,4
DA:352,18
DA:353,18
DA:352,18
DA:353,18
DA:352,18
DA:353,18
DA:352,5
DA:353,5
DA:401,5
DA:408,5
DA:409,5
DA:410,5
end_of_record
SF:/usr/include/c++/11/cmath
FN:1582,_ZSt4log2IiEN9__gnu_cxx11__enable_ifIXsrSt12__is_integerIT_E7__valueEdE6__typeES3_
FNDA:10,_ZSt4log2IiEN9__gnu_cxx11__enable_ifIXsrSt12__is_integerIT_E7__valueEdE6__typeES3_
DA:1582,10
DA:1583,10
end_of_record
SF:/usr/include/c++/11/bits/allocator.h
FN:156,_ZNSaISt13_Rb_tree_nodeIiEEC2Ev
FNDA:25,_ZNSaISt13_Rb_tree_nodeIiEEC2Ev
FN:156,_ZNSaISt13_Rb_tree_nodeISt4pairIKNSt7__cxx1112basic_stringIcSt11char_traitsIcESaIcEEES0_IiiEEEEC2Ev
FNDA:4,_ZNSaISt13_Rb_tree_nodeISt4pairIKNSt7__cxx1112basic_stringIcSt11char_traitsIcESaIcEEES0_IiiEEEEC2Ev
FN:156,_ZNSaImEC2Ev
FNDA:4,_ZNSaImEC2Ev
FN:156,_ZNSaISt3setIiSt4lessIiESaIiEEEC2Ev
FNDA:4,_ZNSaISt3setIiSt4lessIiESaIiEEEC2Ev
FN:159,_ZNSaISt13_Rb_tree_nodeIiEEC2ERKS1_
FNDA:12,_ZNSaISt13_Rb_tree_nodeIiEEC2ERKS1_
FN:159,_ZNSaISt3setIiSt4lessIiESaIiEEEC2ERKS4_
FNDA:2,_ZNSaISt3setIiSt4lessIiESaIiEEEC2ERKS4_
FN:174,_ZNSaISt13_Rb_tree_nodeIiEED2Ev
FNDA:37,_ZNSaISt13_Rb_tree_nodeIiEED2Ev
FN:174,_ZNSaISt13_Rb_tree_nodeISt4pairIKNSt7__cxx1112basic_stringIcSt11char_traitsIcESaIcEEES0_IiiEEEED2Ev
FNDA:4,_ZNSaISt13_Rb_tree_nodeISt4pairIKNSt7__cxx1112basic_stringIcSt11char_traitsIcESaIcEEES0_IiiEEEED2Ev
FN:174,_ZNSaImED2Ev
FNDA:4,_ZNSaImED2Ev
FN:174,_ZNSaISt3setIiSt4lessIiESaIiEEED2Ev
FNDA:6,_ZNSaISt3setIiSt4lessIiESaIiEEED2Ev
DA:156,25
DA:156,4
DA:156,4
DA:156,4
DA:159,12
DA:160,12
DA:159,2
DA:160,2
DA:174,37
DA:174,4
DA:174,4
DA:174,6
end_of_record
SF:/usr/include/c++/11/new
FN:174,_ZnwmPv
FNDA:105,_ZnwmPv
FN:180,_ZdlPvS_
FNDA:0,_ZdlPvS_
DA:174,105
DA:175,105
DA:180,0
end_of_record
SF:/mnt/c/Users/Jeamh/CLionProjects/Examen1/pregunta-3/src/BuddySystem.cpp
FN:12,_ZN11BuddySystemC2Ei
FNDA:4,_ZN11BuddySystemC2Ei
FN:45,_ZN11BuddySystem13getFreeBlocksEv
FNDA:1,_ZN11BuddySystem13getFreeBlocksEv
FN:55,_ZN11BuddySystem7liberarERKNSt7__cxx1112basic_stringIcSt11char_traitsIcESaIcEEE
FNDA:5,_ZN11BuddySystem7liberarERKNSt7__cxx1112basic_stringIcSt11char_traitsIcESaIcEEE
FN:125,_ZN11BuddySystem8reservarERKNSt7__cxx1112basic_stringIcSt11char_traitsIcESaIcEEEi
FNDA:8,_ZN11BuddySystem8reservarERKNSt7__cxx1112basic_stringIcSt11char_traitsIcESaIcEEEi
FN:177,_ZN11BuddySystem14getMaxPotenciaEv
FNDA:1,_ZN11BuddySystem14getMaxPotenciaEv
FN:185,_ZN11BuddySystem23getMemoryRepresentationB5cxx11Ev
FNDA:3,_ZN11BuddySystem23getMemoryRepresentationB5cxx11Ev
FN:199,_ZN11BuddySystem7mostrarEv
FNDA:1,_ZN11BuddySystem7mostrarEv
DA:12,4
DA:13,4
DA:15,4
DA:16,4
DA:17,4
DA:23,29
DA:30,25
DA:33,4
DA:36,4
DA:39,0
DA:45,1
DA:46,1
DA:55,5
DA:57,5
DA:58,5
DA:60,1
DA:61,1
DA:66,4
DA:69,4
DA:70,44
DA:71,40
DA:74,4
DA:77,8
DA:86,8
DA:88,8
DA:91,8
DA:95,4
DA:96,1
DA:97,1
DA:98,1
DA:99,1
DA:100,3
DA:101,3
DA:102,3
DA:103,3
DA:108,4
DA:115,4
DA:125,8
DA:127,8
DA:128,1
DA:129,1
DA:132,7
DA:133,1
DA:134,1
DA:138,6
DA:143,12
DA:144,6
DA:147,6
DA:148,1
DA:149,1
DA:153,5
DA:155,5
DA:159,11
DA:160,6
DA:161,6
DA:165,5
DA:167,61
DA:168,56
DA:170,5
DA:177,1
DA:178,1
DA:185,3
DA:186,3
DA:187,195
DA:188,192
DA:189,56
DA:191,3
DA:192,3
DA:193,0
DA:199,1
DA:200,1
DA:201,1
DA:202,1
DA:204,1
DA:205,2
DA:206,1
DA:207,1
DA:208,1
DA:209,1
DA:210,1
DA:212,1
DA:213,8
DA:214,9
DA:215,2
DA:218,1
DA:219,1
end_of_record
SF:/usr/include/c++/11/bits/vector.tcc
FN:611,_ZNSt6vectorISt3setIiSt4lessIiESaIiEESaIS4_EE17_M_default_appendEm
FNDA:4,_ZNSt6vectorISt3setIiSt4lessIiESaIiEESaIS4_EE17_M_default_appendEm
FN:824,_ZNSt6vectorIbSaIbEE14_M_fill_insertESt13_Bit_iteratormb
FNDA:4,_ZNSt6vectorIbSaIbEE14_M_fill_insertESt13_Bit_iteratormb
DA:611,4
DA:614,4
DA:616,4
DA:617,4
DA:618,4
DA:620,4
DA:621,0
DA:623,4
DA:626,0
DA:627,0
DA:628,0
DA:634,4
DA:635,4
DA:636,4
DA:640,4
DA:641,4
DA:643,0
DA:645,0
DA:646,0
DA:648,4
DA:649,4
DA:653,0
DA:656,0
DA:657,0
DA:658,0
DA:659,0
DA:661,0
DA:663,0
DA:665,0
DA:666,0
DA:667,0
DA:668,0
DA:669,0
DA:671,0
DA:672,0
DA:675,4
DA:676,4
DA:677,4
DA:678,4
DA:679,4
DA:680,4
DA:683,4
DA:824,4
DA:827,4
DA:828,0
DA:829,4
DA:831,0
DA:832,0
DA:833,0
DA:834,0
DA:839,4
DA:840,4
DA:841,4
DA:842,4
DA:843,4
DA:844,4
DA:846,4
DA:847,4
DA:848,4
DA:849,4
end_of_record
SF:/usr/include/c++/11/bits/stl_construct.h
FN:109,_ZSt10_ConstructISt3setIiSt4lessIiESaIiEEJS4_EEvPT_DpOT0_
FNDA:0,_ZSt10_ConstructISt3setIiSt4lessIiESaIiEEJS4_EEvPT_DpOT0_
FN:109,_ZSt10_ConstructISt3setIiSt4lessIiESaIiEEJEEvPT_DpOT0_
FNDA:25,_ZSt10_ConstructISt3setIiSt4lessIiESaIiEEJEEvPT_DpOT0_
FN:109,_ZSt10_ConstructISt3setIiSt4lessIiESaIiEEJRKS4_EEvPT_DpOT0_
FNDA:6,_ZSt10_ConstructISt3setIiSt4lessIiESaIiEEJRKS4_EEvPT_DpOT0_
FN:146,_ZSt8_DestroyISt3setIiSt4lessIiESaIiEEEvPT_
FNDA:31,_ZSt8_DestroyISt3setIiSt4lessIiESaIiEEEvPT_
FN:160,_ZNSt12_Destroy_auxILb0EE9__destroyIPSt3setIiSt4lessIiESaIiEEEEvT_S8_
FNDA:5,_ZNSt12_Destroy_auxILb0EE9__destroyIPSt3setIiSt4lessIiESaIiEEEEvT_S8_
FN:182,_ZSt8_DestroyIPSt3setIiSt4lessIiESaIiEEEvT_S6_
FNDA:5,_ZSt8_DestroyIPSt3setIiSt4lessIiESaIiEEEvT_S6_
DA:109,0
DA:119,0
DA:120,0
DA:109,25
DA:119,25
DA:120,25
DA:109,6
DA:119,6
DA:120,6
DA:146,31
DA:151,31
DA:153,31
DA:160,5
DA:162,36
DA:163,31
DA:164,5
DA:182,5
DA:196,5
DA:197,5
end_of_record
SF:/usr/include/c++/11/bits/basic_string.tcc
FN:206,_ZNSt7__cxx1112basic_stringIcSt11char_traitsIcESaIcEE12_M_constructIPcEEvT_S7_St20forward_iterator_tag
FNDA:0,_ZNSt7__cxx1112basic_stringIcSt11char_traitsIcESaIcEE12_M_constructIPcEEvT_S7_St20forward_iterator_tag
FN:206,_ZNSt7__cxx1112basic_stringIcSt11char_traitsIcESaIcEE12_M_constructIPKcEEvT_S8_St20forward_iterator_tag
FNDA:0,_ZNSt7__cxx1112basic_stringIcSt11char_traitsIcESaIcEE12_M_constructIPKcEEvT_S8_St20forward_iterator_tag
DA:206,0
DA:211,0
DA:212,0
DA:215,0
DA:217,0
DA:219,0
DA:220,0
DA:225,0
DA:226,0
DA:228,0
DA:229,0
DA:232,0
DA:233,0
DA:206,0
DA:211,0
DA:212,0
DA:215,0
DA:217,0
DA:219,0
DA:220,0
DA:225,0
DA:226,0
DA:228,0
DA:229,0
DA:232,0
DA:233,0
end_of_record
SF:/usr/include/c++/11/bits/stl_iterator_base_types.h
FN:238,_ZSt19__iterator_categoryIPcENSt15iterator_traitsIT_E17iterator_categoryERKS2_
FNDA:0,_ZSt19__iterator_categoryIPcENSt15iterator_traitsIT_E17iterator_categoryERKS2_
FN:238,_ZSt19__iterator_categoryIPKcENSt15iterator_traitsIT_E17iterator_categoryERKS3_
FNDA:0,_ZSt19__iterator_categoryIPKcENSt15iterator_traitsIT_E17iterator_categoryERKS3_
DA:238,0
DA:239,0
DA:238,0
DA:239,0
end_of_record
SF:/usr/include/c++/11/bits/move.h
FN:49,_ZSt11__addressofISt3setIiSt4lessIiESaIiEEEPT_RS5_
FNDA:62,_ZSt11__addressofISt3setIiSt4lessIiESaIiEEEPT_RS5_
FN:49,_ZSt11__addressofImEPT_RS0_
FNDA:8,_ZSt11__addressofImEPT_RS0_
FN:77,_ZSt7forwardISt3setIiSt4lessIiESaIiEEEOT_RNSt16remove_referenceIS5_E4typeE
FNDA:0,_ZSt7forwardISt3setIiSt4lessIiESaIiEEEOT_RNSt16remove_referenceIS5_E4typeE
FN:77,_ZSt7forwardIRiEOT_RNSt16remove_referenceIS1_E4typeE
FNDA:10,_ZSt7forwardIRiEOT_RNSt16remove_referenceIS1_E4typeE
FN:77,_ZSt7forwardIiEOT_RNSt16remove_referenceIS0_E4typeE
FNDA:78,_ZSt7forwardIiEOT_RNSt16remove_referenceIS0_E4typeE
FN:77,_ZSt7forwardIRKiEOT_RNSt16remove_referenceIS2_E4typeE
FNDA:83,_ZSt7forwardIRKiEOT_RNSt16remove_referenceIS2_E4typeE
FN:77,_ZSt7forwardIRSt17_Rb_tree_iteratorIiEEOT_RNSt16remove_referenceIS3_E4typeE
FNDA:18,_ZSt7forwardIRSt17_Rb_tree_iteratorIiEEOT_RNSt16remove_referenceIS3_E4typeE
FN:77,_ZSt7forwardIRbEOT_RNSt16remove_referenceIS1_E4typeE
FNDA:18,_ZSt7forwardIRbEOT_RNSt16remove_referenceIS1_E4typeE
FN:77,_ZSt7forwardIRKSt21piecewise_construct_tEOT_RNSt16remove_referenceIS3_E4typeE
FNDA:25,_ZSt7forwardIRKSt21piecewise_construct_tEOT_RNSt16remove_referenceIS3_E4typeE
FN:77,_ZSt7forwardISt5tupleIJRKNSt7__cxx1112basic_stringIcSt11char_traitsIcESaIcEEEEEEOT_RNSt16remove_referenceISA_E4typeE
FNDA:25,_ZSt7forwardISt5tupleIJRKNSt7__cxx1112basic_stringIcSt11char_traitsIcESaIcEEEEEEOT_RNSt16remove_referenceISA_E4typeE
FN:77,_ZSt7forwardISt5tupleIJEEEOT_RNSt16remove_referenceIS2_E4typeE
FNDA:25,_ZSt7forwardISt5tupleIJEEEOT_RNSt16remove_referenceIS2_E4typeE
FN:77,_ZSt7forwardISt17_Rb_tree_iteratorIiEEOT_RNSt16remove_referenceIS2_E4typeE
FNDA:44,_ZSt7forwardISt17_Rb_tree_iteratorIiEEOT_RNSt16remove_referenceIS2_E4typeE
FN:77,_ZSt7forwardIbEOT_RNSt16remove_referenceIS0_E4typeE
FNDA:18,_ZSt7forwardIbEOT_RNSt16remove_referenceIS0_E4typeE
FN:77,_ZSt7forwardIRPSt13_Rb_tree_nodeIiEEOT_RNSt16remove_referenceIS4_E4typeE
FNDA:18,_ZSt7forwardIRPSt13_Rb_tree_nodeIiEEOT_RNSt16remove_referenceIS4_E4typeE
FN:77,_ZSt7forwardIRPSt18_Rb_tree_node_baseEOT_RNSt16remove_referenceIS3_E4typeE
FNDA:23,_ZSt7forwardIRPSt18_Rb_tree_node_baseEOT_RNSt16remove_referenceIS3_E4typeE
FN:77,_ZSt7forwardISt17_Rb_tree_iteratorISt4pairIKNSt7__cxx1112basic_stringIcSt11char_traitsIcESaIcEEES1_IiiEEEEOT_RNSt16remove_referenceISC_E4typeE
FNDA:8,_ZSt7forwardISt17_Rb_tree_iteratorISt4pairIKNSt7__cxx1112basic_stringIcSt11char_traitsIcESaIcEEES1_IiiEEEEOT_RNSt16remove_referenceISC_E4typeE
FN:77,_ZSt7forwardIRKSt3setIiSt4lessIiESaIiEEEOT_RNSt16remove_referenceIS7_E4typeE
FNDA:6,_ZSt7forwardIRKSt3setIiSt4lessIiESaIiEEEOT_RNSt16remove_referenceIS7_E4typeE
FN:77,_ZSt7forwardIRPSt13_Rb_tree_nodeISt4pairIKNSt7__cxx1112basic_stringIcSt11char_traitsIcESaIcEEES1_IiiEEEEOT_RNSt16remove_referenceISE_E4typeE
FNDA:3,_ZSt7forwardIRPSt13_Rb_tree_nodeISt4pairIKNSt7__cxx1112basic_stringIcSt11char_traitsIcESaIcEEES1_IiiEEEEOT_RNSt16remove_referenceISE_E4typeE
FN:77,_ZSt7forwardIRKNSt7__cxx1112basic_stringIcSt11char_traitsIcESaIcEEEEOT_RNSt16remove_referenceIS8_E4typeE
FNDA:6,_ZSt7forwardIRKNSt7__cxx1112basic_stringIcSt11char_traitsIcESaIcEEEEOT_RNSt16remove_referenceIS8_E4typeE
FN:104,_ZSt4moveIRPSt3setIiSt4lessIiESaIiEEEONSt16remove_referenceIT_E4typeEOS8_
FNDA:0,_ZSt4moveIRPSt3setIiSt4lessIiESaIiEEEONSt16remove_referenceIT_E4typeEOS8_
FN:104,_ZSt4moveIRSt3setIiSt4lessIiESaIiEEEONSt16remove_referenceIT_E4typeEOS7_
FNDA:0,_ZSt4moveIRSt3setIiSt4lessIiESaIiEEEONSt16remove_referenceIT_E4typeEOS7_
FN:104,_ZSt4moveIRiEONSt16remove_referenceIT_E4typeEOS2_
FNDA:12,_ZSt4moveIRiEONSt16remove_referenceIT_E4typeEOS2_
FN:104,_ZSt4moveIRSaIcEEONSt16remove_referenceIT_E4typeEOS3_
FNDA:0,_ZSt4moveIRSaIcEEONSt16remove_referenceIT_E4typeEOS3_
DA:49,62
DA:50,62
DA:49,8
DA:50,8
DA:77,44
DA:78,44
DA:77,10
DA:78,10
DA:77,78
DA:78,78
DA:77,83
DA:78,83
DA:77,18
DA:78,18
DA:77,18
DA:78,18
DA:77,25
DA:78,25
DA:77,25
DA:78,25
DA:77,25
DA:78,25
DA:77,6
DA:78,6
DA:77,18
DA:78,18
DA:77,18
DA:78,18
DA:77,23
DA:78,23
DA:77,8
DA:78,8
DA:77,6
DA:78,6
DA:77,3
DA:78,3
DA:77,0
DA:78,0
DA:104,0
DA:105,0
DA:104,0
DA:105,0
DA:104,12
DA:105,12
DA:104,0
DA:105,0
end_of_record
SF:/usr/include/c++/11/ext/type_traits.h
FN:152,_ZN9__gnu_cxx17__is_null_pointerIcEEbPT_
FNDA:0,_ZN9__gnu_cxx17__is_null_pointerIcEEbPT_
FN:152,_ZN9__gnu_cxx17__is_null_pointerIKcEEbPT_
FNDA:0,_ZN9__gnu_cxx17__is_null_pointerIKcEEbPT_
DA:152,0
DA:153,0
DA:152,0
DA:153,0
end_of_record
SF:/usr/include/c++/11/iostream
end_of_record
SF:/usr/include/c++/11/bits/stl_iterator.h
FN:1027,_ZN9__gnu_cxx17__normal_iteratorIPKSt3setIiSt4lessIiESaIiEESt6vectorIS5_SaIS5_EEEC2ERKS7_
FNDA:2,_ZN9__gnu_cxx17__normal_iteratorIPKSt3setIiSt4lessIiESaIiEESt6vectorIS5_SaIS5_EEEC2ERKS7_
FN:1042,_ZNK9__gnu_cxx17__normal_iteratorIPKSt3setIiSt4lessIiESaIiEESt6vectorIS5_SaIS5_EEEdeEv
FNDA:6,_ZNK9__gnu_cxx17__normal_iteratorIPKSt3setIiSt4lessIiESaIiEESt6vectorIS5_SaIS5_EEEdeEv
FN:1052,_ZN9__gnu_cxx17__normal_iteratorIPKSt3setIiSt4lessIiESaIiEESt6vectorIS5_SaIS5_EEEppEv
FNDA:6,_ZN9__gnu_cxx17__normal_iteratorIPKSt3setIiSt4lessIiESaIiEESt6vectorIS5_SaIS5_EEEppEv
FN:1105,_ZNK9__gnu_cxx17__normal_iteratorIPKSt3setIiSt4lessIiESaIiEESt6vectorIS5_SaIS5_EEE4baseEv
FNDA:14,_ZNK9__gnu_cxx17__normal_iteratorIPKSt3setIiSt4lessIiESaIiEESt6vectorIS5_SaIS5_EEE4baseEv
FN:1179,_ZN9__gnu_cxxneIPKSt3setIiSt4lessIiESaIiEESt6vectorIS5_SaIS5_EEEEbRKNS_17__normal_iteratorIT_T0_EESG_
FNDA:7,_ZN9__gnu_cxxneIPKSt3setIiSt4lessIiESaIiEESt6vectorIS5_SaIS5_EEEEbRKNS_17__normal_iteratorIT_T0_EESG_
FN:1439,_ZNSt13move_iteratorIPSt3setIiSt4lessIiESaIiEEEC2ES5_
FNDA:0,_ZNSt13move_iteratorIPSt3setIiSt4lessIiESaIiEEEC2ES5_
FN:1464,_ZNKSt13move_iteratorIPSt3setIiSt4lessIiESaIiEEE4baseEv
FNDA:0,_ZNKSt13move_iteratorIPSt3setIiSt4lessIiESaIiEEE4baseEv
FN:1477,_ZNKSt13move_iteratorIPSt3setIiSt4lessIiESaIiEEEdeEv
FNDA:0,_ZNKSt13move_iteratorIPSt3setIiSt4lessIiESaIiEEEdeEv
FN:1489,_ZNSt13move_iteratorIPSt3setIiSt4lessIiESaIiEEEppEv
FNDA:0,_ZNSt13move_iteratorIPSt3setIiSt4lessIiESaIiEEEppEv
FN:1648,_ZSteqIPSt3setIiSt4lessIiESaIiEEEbRKSt13move_iteratorIT_ESA_
FNDA:0,_ZSteqIPSt3setIiSt4lessIiESaIiEEEbRKSt13move_iteratorIT_ESA_
FN:1661,_ZStneIPSt3setIiSt4lessIiESaIiEEEbRKSt13move_iteratorIT_ESA_
FNDA:0,_ZStneIPSt3setIiSt4lessIiESaIiEEEbRKSt13move_iteratorIT_ESA_
FN:1723,_ZSt32__make_move_if_noexcept_iteratorISt3setIiSt4lessIiESaIiEESt13move_iteratorIPS4_EET0_PT_
FNDA:0,_ZSt32__make_move_if_noexcept_iteratorISt3setIiSt4lessIiESaIiEESt13move_iteratorIPS4_EET0_PT_
DA:1027,2
DA:1028,2
DA:1042,6
DA:1043,6
DA:1052,6
DA:1054,6
DA:1055,6
DA:1105,14
DA:1106,14
DA:1179,7
DA:1182,7
DA:1439,0
DA:1440,0
DA:1464,0
DA:1465,0
DA:1477,0
DA:1481,0
DA:1489,0
DA:1491,0
DA:1492,0
DA:1648,0
DA:1650,0
DA:1661,0
DA:1663,0
DA:1723,0
DA:1724,0
end_of_record
SF:/usr/include/c++/11/tuple
FN:192,_ZNSt10_Head_baseILm1ERiLb0EEC2ES0_
FNDA:4,_ZNSt10_Head_baseILm1ERiLb0EEC2ES0_
FN:192,_ZNSt10_Head_baseILm0ERKNSt7__cxx1112basic_stringIcSt11char_traitsIcESaIcEEELb0EEC2ES7_
FNDA:5,_ZNSt10_Head_baseILm0ERKNSt7__cxx1112basic_stringIcSt11char_traitsIcESaIcEEELb0EEC2ES7_
FN:192,_ZNSt10_Head_baseILm0ERiLb0EEC2ES0_
FNDA:4,_ZNSt10_Head_baseILm0ERiLb0EEC2ES0_
FN:233,_ZNSt10_Head_baseILm0ERiLb0EE7_M_headERS1_
FNDA:4,_ZNSt10_Head_baseILm0ERiLb0EE7_M_headERS1_
FN:233,_ZNSt10_Head_baseILm1ERiLb0EE7_M_headERS1_
FNDA:4,_ZNSt10_Head_baseILm1ERiLb0EE7_M_headERS1_
FN:233,_ZNSt10_Head_baseILm0ERKNSt7__cxx1112basic_stringIcSt11char_traitsIcESaIcEEELb0EE7_M_headERS8_
FNDA:5,_ZNSt10_Head_baseILm0ERKNSt7__cxx1112basic_stringIcSt11char_traitsIcESaIcEEELb0EE7_M_headERS8_
FN:268,_ZNSt11_Tuple_implILm0EJRiS0_EE7_M_headERS1_
FNDA:4,_ZNSt11_Tuple_implILm0EJRiS0_EE7_M_headERS1_
FN:274,_ZNSt11_Tuple_implILm0EJRiS0_EE7_M_tailERS1_
FNDA:4,_ZNSt11_Tuple_implILm0EJRiS0_EE7_M_tailERS1_
FN:283,_ZNSt11_Tuple_implILm0EJRiS0_EEC2ES0_S0_
FNDA:4,_ZNSt11_Tuple_implILm0EJRiS0_EEC2ES0_S0_
FN:424,_ZNSt11_Tuple_implILm0EJRKNSt7__cxx1112basic_stringIcSt11char_traitsIcESaIcEEEEE7_M_headERS8_
FNDA:5,_ZNSt11_Tuple_implILm0EJRKNSt7__cxx1112basic_stringIcSt11char_traitsIcESaIcEEEEE7_M_headERS8_
FN:424,_ZNSt11_Tuple_implILm1EJRiEE7_M_headERS1_
FNDA:4,_ZNSt11_Tuple_implILm1EJRiEE7_M_headERS1_
FN:434,_ZNSt11_Tuple_implILm1EJRiEEC2ES0_
FNDA:4,_ZNSt11_Tuple_implILm1EJRiEEC2ES0_
FN:434,_ZNSt11_Tuple_implILm0EJRKNSt7__cxx1112basic_stringIcSt11char_traitsIcESaIcEEEEEC2ES7_
FNDA:5,_ZNSt11_Tuple_implILm0EJRKNSt7__cxx1112basic_stringIcSt11char_traitsIcESaIcEEEEEC2ES7_
FN:454,_ZNSt11_Tuple_implILm0EJRKNSt7__cxx1112basic_stringIcSt11char_traitsIcESaIcEEEEEC2EOS8_
FNDA:5,_ZNSt11_Tuple_implILm0EJRKNSt7__cxx1112basic_stringIcSt11char_traitsIcESaIcEEEEEC2EOS8_
FN:727,_ZNSt5tupleIJRKNSt7__cxx1112basic_stringIcSt11char_traitsIcESaIcEEEEEC2ILb1ELb1EEES7_
FNDA:5,_ZNSt5tupleIJRKNSt7__cxx1112basic_stringIcSt11char_traitsIcESaIcEEEEEC2ILb1ELb1EEES7_
FN:756,_ZNSt5tupleIJRKNSt7__cxx1112basic_stringIcSt11char_traitsIcESaIcEEEEEC2EOS8_
FNDA:5,_ZNSt5tupleIJRKNSt7__cxx1112basic_stringIcSt11char_traitsIcESaIcEEEEEC2EOS8_
FN:1063,_ZNSt5tupleIJRiS0_EEC2ILb1ELb1EEES0_S0_
FNDA:4,_ZNSt5tupleIJRiS0_EEC2ILb1ELb1EEES0_S0_
FN:1310,_ZNSt5tupleIJRiS0_EEaSIiiEENSt9enable_ifIXcl12__assignableIRKT_RKT0_EEERS1_E4typeERKSt4pairIS4_S7_E
FNDA:4,_ZNSt5tupleIJRiS0_EEaSIiiEENSt9enable_ifIXcl12__assignableIRKT_RKT0_EEERS1_E4typeERKSt4pairIS4_S7_E
FN:1377,_ZSt12__get_helperILm0ERKNSt7__cxx1112basic_stringIcSt11char_traitsIcESaIcEEEJEERT0_RSt11_Tuple_implIXT_EJS8_DpT1_EE
FNDA:5,_ZSt12__get_helperILm0ERKNSt7__cxx1112basic_stringIcSt11char_traitsIcESaIcEEEJEERT0_RSt11_Tuple_implIXT_EJS8_DpT1_EE
FN:1393,_ZSt3getILm0EJRKNSt7__cxx1112basic_stringIcSt11char_traitsIcESaIcEEEEERNSt13tuple_elementIXT_ESt5tupleIJDpT0_EEE4typeERSC_
FNDA:5,_ZSt3getILm0EJRKNSt7__cxx1112basic_stringIcSt11char_traitsIcESaIcEEEEERNSt13tuple_elementIXT_ESt5tupleIJDpT0_EEE4typeERSC_
FN:1746,_ZSt3tieIJiiEESt5tupleIJDpRT_EES3_
FNDA:4,_ZSt3tieIJiiEESt5tupleIJDpRT_EES3_
FN:1804,_ZNSt4pairIKNSt7__cxx1112basic_stringIcSt11char_traitsIcESaIcEEES_IiiEEC2IJRS6_EJEEESt21piecewise_construct_tSt5tupleIJDpT_EESC_IJDpT0_EE
FNDA:5,_ZNSt4pairIKNSt7__cxx1112basic_stringIcSt11char_traitsIcESaIcEEES_IiiEEC2IJRS6_EJEEESt21piecewise_construct_tSt5tupleIJDpT_EESC_IJDpT0_EE
FN:1816,_ZNSt4pairIKNSt7__cxx1112basic_stringIcSt11char_traitsIcESaIcEEES_IiiEEC2IJRS6_EJLm0EEJEJEEERSt5tupleIJDpT_EERSB_IJDpT1_EESt12_Index_tupleIJXspT0_EEESK_IJXspT2_EEE
FNDA:5,_ZNSt4pairIKNSt7__cxx1112basic_stringIcSt11char_traitsIcESaIcEEES_IiiEEC2IJRS6_EJLm0EEJEJEEERSt5tupleIJDpT_EERSB_IJDpT1_EESt12_Index_tupleIJXspT0_EEESK_IJXspT2_EEE
DA:192,4
DA:193,4
DA:192,5
DA:193,5
DA:192,4
DA:193,4
DA:233,5
DA:233,4
DA:233,4
DA:268,4
DA:274,4
DA:283,4
DA:284,4
DA:285,4
DA:424,5
DA:424,4
DA:434,4
DA:435,4
DA:436,4
DA:434,5
DA:435,5
DA:436,5
DA:454,5
DA:456,5
DA:457,5
DA:727,5
DA:729,5
DA:756,5
DA:1063,4
DA:1065,4
DA:1310,4
DA:1313,4
DA:1314,4
DA:1315,4
DA:1377,5
DA:1378,5
DA:1393,5
DA:1394,5
DA:1746,4
DA:1747,4
DA:1804,5
DA:1809,5
DA:1810,5
DA:1816,5
DA:1819,5
DA:1820,5
DA:1821,5
end_of_record
SF:/usr/include/c++/11/ext/aligned_buffer.h
FN:64,_ZN9__gnu_cxx16__aligned_membufIiE7_M_addrEv
FNDA:39,_ZN9__gnu_cxx16__aligned_membufIiE7_M_addrEv
FN:64,_ZN9__gnu_cxx16__aligned_membufISt4pairIKNSt7__cxx1112basic_stringIcSt11char_traitsIcESaIcEEES1_IiiEEE7_M_addrEv
FNDA:20,_ZN9__gnu_cxx16__aligned_membufISt4pairIKNSt7__cxx1112basic_stringIcSt11char_traitsIcESaIcEEES1_IiiEEE7_M_addrEv
FN:68,_ZNK9__gnu_cxx16__aligned_membufISt4pairIKNSt7__cxx1112basic_stringIcSt11char_traitsIcESaIcEEES1_IiiEEE7_M_addrEv
FNDA:35,_ZNK9__gnu_cxx16__aligned_membufISt4pairIKNSt7__cxx1112basic_stringIcSt11char_traitsIcESaIcEEES1_IiiEEE7_M_addrEv
FN:68,_ZNK9__gnu_cxx16__aligned_membufIiE7_M_addrEv
FNDA:83,_ZNK9__gnu_cxx16__aligned_membufIiE7_M_addrEv
FN:72,_ZN9__gnu_cxx16__aligned_membufIiE6_M_ptrEv
FNDA:39,_ZN9__gnu_cxx16__aligned_membufIiE6_M_ptrEv
FN:72,_ZN9__gnu_cxx16__aligned_membufISt4pairIKNSt7__cxx1112basic_stringIcSt11char_traitsIcESaIcEEES1_IiiEEE6_M_ptrEv
FNDA:20,_ZN9__gnu_cxx16__aligned_membufISt4pairIKNSt7__cxx1112basic_stringIcSt11char_traitsIcESaIcEEES1_IiiEEE6_M_ptrEv
FN:76,_ZNK9__gnu_cxx16__aligned_membufISt4pairIKNSt7__cxx1112basic_stringIcSt11char_traitsIcESaIcEEES1_IiiEEE6_M_ptrEv
FNDA:35,_ZNK9__gnu_cxx16__aligned_membufISt4pairIKNSt7__cxx1112basic_stringIcSt11char_traitsIcESaIcEEES1_IiiEEE6_M_ptrEv
FN:76,_ZNK9__gnu_cxx16__aligned_membufIiE6_M_ptrEv
FNDA:83,_ZNK9__gnu_cxx16__aligned_membufIiE6_M_ptrEv
DA:64,39
DA:65,39
DA:64,20
DA:65,20
DA:68,35
DA:69,35
DA:68,83
DA:69,83
DA:72,39
DA:73,39
DA:72,20
DA:73,20
DA:76,35
DA:77,35
DA:76,83
DA:77,83
end_of_record
SF:/usr/include/c++/11/bits/stl_set.h
FN:167,_ZNSt3setIiSt4lessIiESaIiEEC2Ev
FNDA:25,_ZNSt3setIiSt4lessIiESaIiEEC2Ev
FN:223,_ZNSt3setIiSt4lessIiESaIiEEC2ERKS3_
FNDA:6,_ZNSt3setIiSt4lessIiESaIiEEC2ERKS3_
FN:231,_ZNSt3setIiSt4lessIiESaIiEEC2EOS3_
FNDA:0,_ZNSt3setIiSt4lessIiESaIiEEC2EOS3_
FN:281,_ZNSt3setIiSt4lessIiESaIiEED2Ev
FNDA:31,_ZNSt3setIiSt4lessIiESaIiEED2Ev
FN:344,_ZNKSt3setIiSt4lessIiESaIiEE5beginEv
FNDA:12,_ZNKSt3setIiSt4lessIiESaIiEE5beginEv
FN:353,_ZNKSt3setIiSt4lessIiESaIiEE3endEv
FNDA:7,_ZNKSt3setIiSt4lessIiESaIiEE3endEv
FN:414,_ZNKSt3setIiSt4lessIiESaIiEE5emptyEv
FNDA:11,_ZNKSt3setIiSt4lessIiESaIiEE5emptyEv
FN:509,_ZNSt3setIiSt4lessIiESaIiEE6insertERKi
FNDA:11,_ZNSt3setIiSt4lessIiESaIiEE6insertERKi
FN:518,_ZNSt3setIiSt4lessIiESaIiEE6insertEOi
FNDA:7,_ZNSt3setIiSt4lessIiESaIiEE6insertEOi
FN:684,_ZNSt3setIiSt4lessIiESaIiEE5eraseERKi
FNDA:13,_ZNSt3setIiSt4lessIiESaIiEE5eraseERKi
FN:748,_ZNKSt3setIiSt4lessIiESaIiEE5countERKi
FNDA:16,_ZNKSt3setIiSt4lessIiESaIiEE5countERKi
DA:167,25
DA:223,6
DA:231,0
DA:281,31
DA:344,12
DA:345,12
DA:353,7
DA:354,7
DA:414,11
DA:415,11
DA:509,11
DA:512,11
DA:513,11
DA:518,7
DA:521,7
DA:522,7
DA:684,13
DA:685,13
DA:748,16
DA:749,16
end_of_record
SF:/usr/include/c++/11/bits/cpp_type_traits.h
FN:560,_ZSt12__miter_baseISt19_Bit_const_iteratorET_S1_
FNDA:8,_ZSt12__miter_baseISt19_Bit_const_iteratorET_S1_
FN:560,_ZSt12__miter_baseIPmET_S1_
FNDA:8,_ZSt12__miter_baseIPmET_S1_
FN:560,_ZSt12__miter_baseISt13_Bit_iteratorET_S1_
FNDA:8,_ZSt12__miter_baseISt13_Bit_iteratorET_S1_
DA:560,8
DA:561,8
DA:560,8
DA:561,8
DA:560,8
DA:561,8
end_of_record
SF:/usr/include/c++/11/bits/stl_uninitialized.h
FN:85,_ZNSt20__uninitialized_copyILb0EE13__uninit_copyISt13move_iteratorIPSt3setIiSt4lessIiESaIiEEES8_EET0_T_SB_SA_
FNDA:0,_ZNSt20__uninitialized_copyILb0EE13__uninit_copyISt13move_iteratorIPSt3setIiSt4lessIiESaIiEEES8_EET0_T_SB_SA_
FN:85,_ZNSt20__uninitialized_copyILb0EE13__uninit_copyIN9__gnu_cxx17__normal_iteratorIPKSt3setIiSt4lessIiESaIiEESt6vectorIS8_SaIS8_EEEEPS8_EET0_T_SH_SG_
FNDA:1,_ZNSt20__uninitialized_copyILb0EE13__uninit_copyIN9__gnu_cxx17__normal_iteratorIPKSt3setIiSt4lessIiESaIiEESt6vectorIS8_SaIS8_EEEEPS8_EET0_T_SH_SG_
FN:126,_ZSt18uninitialized_copyISt13move_iteratorIPSt3setIiSt4lessIiESaIiEEES6_ET0_T_S9_S8_
FNDA:0,_ZSt18uninitialized_copyISt13move_iteratorIPSt3setIiSt4lessIiESaIiEEES6_ET0_T_S9_S8_
FN:126,_ZSt18uninitialized_copyIN9__gnu_cxx17__normal_iteratorIPKSt3setIiSt4lessIiESaIiEESt6vectorIS6_SaIS6_EEEEPS6_ET0_T_SF_SE_
FNDA:1,_ZSt18uninitialized_copyIN9__gnu_cxx17__normal_iteratorIPKSt3setIiSt4lessIiESaIiEESt6vectorIS6_SaIS6_EEEEPS6_ET0_T_SF_SE_
FN:331,_ZSt22__uninitialized_copy_aISt13move_iteratorIPSt3setIiSt4lessIiESaIiEEES6_S5_ET0_T_S9_S8_RSaIT1_E
FNDA:0,_ZSt22__uninitialized_copy_aISt13move_iteratorIPSt3setIiSt4lessIiESaIiEEES6_S5_ET0_T_S9_S8_RSaIT1_E
FN:331,_ZSt22__uninitialized_copy_aIN9__gnu_cxx17__normal_iteratorIPKSt3setIiSt4lessIiESaIiEESt6vectorIS6_SaIS6_EEEEPS6_S6_ET0_T_SF_SE_RSaIT1_E
FNDA:1,_ZSt22__uninitialized_copy_aIN9__gnu_cxx17__normal_iteratorIPKSt3setIiSt4lessIiESaIiEESt6vectorIS6_SaIS6_EEEEPS6_S6_ET0_T_SF_SE_RSaIT1_E
FN:349,_ZSt34__uninitialized_move_if_noexcept_aIPSt3setIiSt4lessIiESaIiEES5_SaIS4_EET0_T_S8_S7_RT1_
FNDA:0,_ZSt34__uninitialized_move_if_noexcept_aIPSt3setIiSt4lessIiESaIiEES5_SaIS4_EET0_T_S8_S7_RT1_
FN:573,_ZNSt27__uninitialized_default_n_1ILb0EE18__uninit_default_nIPSt3setIiSt4lessIiESaIiEEmEET_S8_T0_
FNDA:4,_ZNSt27__uninitialized_default_n_1ILb0EE18__uninit_default_nIPSt3setIiSt4lessIiESaIiEEmEET_S8_T0_
FN:630,_ZSt25__uninitialized_default_nIPSt3setIiSt4lessIiESaIiEEmET_S6_T0_
FNDA:4,_ZSt25__uninitialized_default_nIPSt3setIiSt4lessIiESaIiEEmET_S6_T0_
FN:702,_ZSt27__uninitialized_default_n_aIPSt3setIiSt4lessIiESaIiEEmS4_ET_S6_T0_RSaIT1_E
FNDA:4,_ZSt27__uninitialized_default_n_aIPSt3setIiSt4lessIiESaIiEEmS4_ET_S6_T0_RSaIT1_E
FN:986,_ZSt19__relocate_object_aISt3setIiSt4lessIiESaIiEES4_SaIS4_EEvPT_PT0_RT1_
FNDA:0,_ZSt19__relocate_object_aISt3setIiSt4lessIiESaIiEES4_SaIS4_EEvPT_PT0_RT1_
FN:1018,_ZSt14__relocate_a_1IPSt3setIiSt4lessIiESaIiEES5_SaIS4_EET0_T_S8_S7_RT1_
FNDA:4,_ZSt14__relocate_a_1IPSt3setIiSt4lessIiESaIiEES5_SaIS4_EET0_T_S8_S7_RT1_
FN:1040,_ZSt12__relocate_aIPSt3setIiSt4lessIiESaIiEES5_SaIS4_EET0_T_S8_S7_RT1_
FNDA:4,_ZSt12__relocate_aIPSt3setIiSt4lessIiESaIiEES5_SaIS4_EET0_T_S8_S7_RT1_
DA:85,0
DA:88,0
DA:91,0
DA:92,0
DA:93,0
DA:95,0
DA:97,0
DA:98,0
DA:85,1
DA:88,1
DA:91,7
DA:92,6
DA:93,1
DA:95,0
DA:97,0
DA:98,0
DA:126,0
DA:145,0
DA:151,0
DA:126,1
DA:145,1
DA:151,1
DA:331,0
DA:333,0
DA:331,1
DA:333,1
DA:349,0
DA:355,0
DA:356,0
DA:573,4
DA:575,4
DA:578,29
DA:579,25
DA:580,4
DA:630,4
DA:635,4
DA:640,4
DA:702,4
DA:704,4
DA:986,0
DA:994,0
DA:995,0
DA:996,0
DA:1018,4
DA:1030,4
DA:1031,4
DA:1032,0
DA:1034,4
DA:1040,4
DA:1046,4
DA:1048,4
end_of_record
SF:/usr/include/c++/11/bits/stl_iterator_base_funcs.h
FN:98,_ZSt10__distanceIPcENSt15iterator_traitsIT_E15difference_typeES2_S2_St26random_access_iterator_tag
FNDA:0,_ZSt10__distanceIPcENSt15iterator_traitsIT_E15difference_typeES2_S2_St26random_access_iterator_tag
FN:98,_ZSt10__distanceIPKcENSt15iterator_traitsIT_E15difference_typeES3_S3_St26random_access_iterator_tag
FNDA:0,_ZSt10__distanceIPKcENSt15iterator_traitsIT_E15difference_typeES3_S3_St26random_access_iterator_tag
FN:138,_ZSt8distanceIPcENSt15iterator_traitsIT_E15difference_typeES2_S2_
FNDA:0,_ZSt8distanceIPcENSt15iterator_traitsIT_E15difference_typeES2_S2_
FN:138,_ZSt8distanceIPKcENSt15iterator_traitsIT_E15difference_typeES3_S3_
FNDA:0,_ZSt8distanceIPKcENSt15iterator_traitsIT_E15difference_typeES3_S3_
DA:98,0
DA:104,0
DA:98,0
DA:104,0
DA:138,0
DA:141,0
DA:142,0
DA:138,0
DA:141,0
DA:142,0
end_of_record
TN:
SF:/usr/include/c++/11/bits/stl_set.h
FN:281,_ZNSt3setIiSt4lessIiESaIiEED2Ev
FNDA:0,_ZNSt3setIiSt4lessIiESaIiEED2Ev
DA:281,0
end_of_record
SF:/usr/include/c++/11/bits/stl_iterator_base_funcs.h
FN:98,_ZSt10__distanceIPcENSt15iterator_traitsIT_E15difference_typeES2_S2_St26random_access_iterator_tag
FNDA:0,_ZSt10__distanceIPcENSt15iterator_traitsIT_E15difference_typeES2_S2_St26random_access_iterator_tag
FN:98,_ZSt10__distanceIPKcENSt15iterator_traitsIT_E15difference_typeES3_S3_St26random_access_iterator_tag
FNDA:0,_ZSt10__distanceIPKcENSt15iterator_traitsIT_E15difference_typeES3_S3_St26random_access_iterator_tag
FN:138,_ZSt8distanceIPcENSt15iterator_traitsIT_E15difference_typeES2_S2_
FNDA:0,_ZSt8distanceIPcENSt15iterator_traitsIT_E15difference_typeES2_S2_
FN:138,_ZSt8distanceIPKcENSt15iterator_traitsIT_E15difference_typeES3_S3_
FNDA:0,_ZSt8distanceIPKcENSt15iterator_traitsIT_E15difference_typeES3_S3_
DA:98,0
DA:104,0
DA:98,0
DA:104,0
DA:138,0
DA:141,0
DA:142,0
DA:138,0
DA:141,0
DA:142,0
end_of_record
SF:/usr/include/c++/11/bits/stl_iterator_base_types.h
FN:238,_ZSt19__iterator_categoryIPcENSt15iterator_traitsIT_E17iterator_categoryERKS2_
FNDA:0,_ZSt19__iterator_categoryIPcENSt15iterator_traitsIT_E17iterator_categoryERKS2_
FN:238,_ZSt19__iterator_categoryIPKcENSt15iterator_traitsIT_E17iterator_categoryERKS3_
FNDA:0,_ZSt19__iterator_categoryIPKcENSt15iterator_traitsIT_E17iterator_categoryERKS3_
DA:238,0
DA:239,0
DA:238,0
DA:239,0
end_of_record
SF:/usr/include/c++/11/bits/unique_ptr.h
FN:79,_ZNKSt14default_deleteINSt7__cxx1112basic_stringIcSt11char_traitsIcESaIcEEEEclEPS5_
FNDA:0,_ZNKSt14default_deleteINSt7__cxx1112basic_stringIcSt11char_traitsIcESaIcEEEEclEPS5_
FN:79,_ZNKSt14default_deleteINSt7__cxx1118basic_stringstreamIcSt11char_traitsIcESaIcEEEEclEPS5_
FNDA:56,_ZNKSt14default_deleteINSt7__cxx1118basic_stringstreamIcSt11char_traitsIcESaIcEEEEclEPS5_
FN:154,_ZNSt15__uniq_ptr_implINSt7__cxx1112basic_stringIcSt11char_traitsIcESaIcEEESt14default_deleteIS5_EEC2Ev
FNDA:14,_ZNSt15__uniq_ptr_implINSt7__cxx1112basic_stringIcSt11char_traitsIcESaIcEEESt14default_deleteIS5_EEC2Ev
FN:172,_ZNSt15__uniq_ptr_implINSt7__cxx1112basic_stringIcSt11char_traitsIcESaIcEEESt14default_deleteIS5_EE6_M_ptrEv
FNDA:14,_ZNSt15__uniq_ptr_implINSt7__cxx1112basic_stringIcSt11char_traitsIcESaIcEEESt14default_deleteIS5_EE6_M_ptrEv
FN:172,_ZNSt15__uniq_ptr_implINSt7__cxx1118basic_stringstreamIcSt11char_traitsIcESaIcEEESt14default_deleteIS5_EE6_M_ptrEv
FNDA:112,_ZNSt15__uniq_ptr_implINSt7__cxx1118basic_stringstreamIcSt11char_traitsIcESaIcEEESt14default_deleteIS5_EE6_M_ptrEv
FN:173,_ZNKSt15__uniq_ptr_implINSt7__cxx1112basic_stringIcSt11char_traitsIcESaIcEEESt14default_deleteIS5_EE6_M_ptrEv
FNDA:0,_ZNKSt15__uniq_ptr_implINSt7__cxx1112basic_stringIcSt11char_traitsIcESaIcEEESt14default_deleteIS5_EE6_M_ptrEv
FN:174,_ZNSt15__uniq_ptr_implINSt7__cxx1118basic_stringstreamIcSt11char_traitsIcESaIcEEESt14default_deleteIS5_EE10_M_deleterEv
FNDA:56,_ZNSt15__uniq_ptr_implINSt7__cxx1118basic_stringstreamIcSt11char_traitsIcESaIcEEESt14default_deleteIS5_EE10_M_deleterEv
FN:174,_ZNSt15__uniq_ptr_implINSt7__cxx1112basic_stringIcSt11char_traitsIcESaIcEEESt14default_deleteIS5_EE10_M_deleterEv
FNDA:0,_ZNSt15__uniq_ptr_implINSt7__cxx1112basic_stringIcSt11char_traitsIcESaIcEEESt14default_deleteIS5_EE10_M_deleterEv
FN:269,_ZNSt10unique_ptrINSt7__cxx1112basic_stringIcSt11char_traitsIcESaIcEEESt14default_deleteIS5_EEC2IS7_vEEv
FNDA:14,_ZNSt10unique_ptrINSt7__cxx1112basic_stringIcSt11char_traitsIcESaIcEEESt14default_deleteIS5_EEC2IS7_vEEv
FN:355,_ZNSt10unique_ptrINSt7__cxx1118basic_stringstreamIcSt11char_traitsIcESaIcEEESt14default_deleteIS5_EED2Ev
FNDA:56,_ZNSt10unique_ptrINSt7__cxx1118basic_stringstreamIcSt11char_traitsIcESaIcEEESt14default_deleteIS5_EED2Ev
FN:355,_ZNSt10unique_ptrINSt7__cxx1112basic_stringIcSt11char_traitsIcESaIcEEESt14default_deleteIS5_EED2Ev
FNDA:14,_ZNSt10unique_ptrINSt7__cxx1112basic_stringIcSt11char_traitsIcESaIcEEESt14default_deleteIS5_EED2Ev
FN:413,_ZNKSt10unique_ptrINSt7__cxx1112basic_stringIcSt11char_traitsIcESaIcEEESt14default_deleteIS5_EEptEv
FNDA:0,_ZNKSt10unique_ptrINSt7__cxx1112basic_stringIcSt11char_traitsIcESaIcEEESt14default_deleteIS5_EEptEv
FN:421,_ZNKSt10unique_ptrINSt7__cxx1112basic_stringIcSt11char_traitsIcESaIcEEESt14default_deleteIS5_EE3getEv
FNDA:0,_ZNKSt10unique_ptrINSt7__cxx1112basic_stringIcSt11char_traitsIcESaIcEEESt14default_deleteIS5_EE3getEv
FN:426,_ZNSt10unique_ptrINSt7__cxx1118basic_stringstreamIcSt11char_traitsIcESaIcEEESt14default_deleteIS5_EE11get_deleterEv
FNDA:56,_ZNSt10unique_ptrINSt7__cxx1118basic_stringstreamIcSt11char_traitsIcESaIcEEESt14default_deleteIS5_EE11get_deleterEv
FN:426,_ZNSt10unique_ptrINSt7__cxx1112basic_stringIcSt11char_traitsIcESaIcEEESt14default_deleteIS5_EE11get_deleterEv
FNDA:0,_ZNSt10unique_ptrINSt7__cxx1112basic_stringIcSt11char_traitsIcESaIcEEESt14default_deleteIS5_EE11get_deleterEv
FN:435,_ZNKSt10unique_ptrINSt7__cxx1112basic_stringIcSt11char_traitsIcESaIcEEESt14default_deleteIS5_EEcvbEv
FNDA:0,_ZNKSt10unique_ptrINSt7__cxx1112basic_stringIcSt11char_traitsIcESaIcEEESt14default_deleteIS5_EEcvbEv
FN:781,_ZStneINSt7__cxx1112basic_stringIcSt11char_traitsIcESaIcEEESt14default_deleteIS5_EEbRKSt10unique_ptrIT_T0_EDn
FNDA:0,_ZStneINSt7__cxx1112basic_stringIcSt11char_traitsIcESaIcEEESt14default_deleteIS5_EEbRKSt10unique_ptrIT_T0_EDn
DA:79,0
DA:85,0
DA:86,0
DA:79,56
DA:85,56
DA:86,56
DA:154,14
DA:172,14
DA:172,112
DA:173,0
DA:174,56
DA:174,0
DA:269,14
DA:270,14
DA:271,14
DA:355,14
DA:359,14
DA:360,14
DA:361,0
DA:362,14
DA:363,14
DA:355,56
DA:359,56
DA:360,56
DA:361,56
DA:362,56
DA:363,56
DA:413,0
DA:416,0
DA:421,0
DA:422,0
DA:426,0
DA:427,0
DA:426,56
DA:427,56
DA:435,0
DA:436,0
DA:781,0
DA:782,0
end_of_record
SF:/usr/include/c++/11/ext/type_traits.h
FN:152,_ZN9__gnu_cxx17__is_null_pointerIcEEbPT_
FNDA:0,_ZN9__gnu_cxx17__is_null_pointerIcEEbPT_
FN:152,_ZN9__gnu_cxx17__is_null_pointerIKcEEbPT_
FNDA:0,_ZN9__gnu_cxx17__is_null_pointerIKcEEbPT_
DA:152,0
DA:153,0
DA:152,0
DA:153,0
end_of_record
SF:/usr/include/c++/11/bits/move.h
FN:49,_ZSt11__addressofImEPT_RS0_
FNDA:0,_ZSt11__addressofImEPT_RS0_
FN:49,_ZSt11__addressofISt3setIiSt4lessIiESaIiEEEPT_RS5_
FNDA:0,_ZSt11__addressofISt3setIiSt4lessIiESaIiEEEPT_RS5_
FN:104,_ZSt4moveIRPNSt7__cxx1112basic_stringIcSt11char_traitsIcESaIcEEEEONSt16remove_referenceIT_E4typeEOS9_
FNDA:0,_ZSt4moveIRPNSt7__cxx1112basic_stringIcSt11char_traitsIcESaIcEEEEONSt16remove_referenceIT_E4typeEOS9_
FN:104,_ZSt4moveIRPNSt7__cxx1118basic_stringstreamIcSt11char_traitsIcESaIcEEEEONSt16remove_referenceIT_E4typeEOS9_
FNDA:56,_ZSt4moveIRPNSt7__cxx1118basic_stringstreamIcSt11char_traitsIcESaIcEEEEONSt16remove_referenceIT_E4typeEOS9_
FN:104,_ZSt4moveIRSaIcEEONSt16remove_referenceIT_E4typeEOS3_
FNDA:0,_ZSt4moveIRSaIcEEONSt16remove_referenceIT_E4typeEOS3_
DA:49,0
DA:50,0
DA:49,0
DA:50,0
DA:104,0
DA:105,0
DA:104,56
DA:105,56
DA:104,0
DA:105,0
end_of_record
SF:/usr/include/c++/11/iostream
end_of_record
SF:/usr/include/c++/11/ext/aligned_buffer.h
FN:64,_ZN9__gnu_cxx16__aligned_membufIiE7_M_addrEv
FNDA:0,_ZN9__gnu_cxx16__aligned_membufIiE7_M_addrEv
FN:64,_ZN9__gnu_cxx16__aligned_membufISt4pairIKNSt7__cxx1112basic_stringIcSt11char_traitsIcESaIcEEES1_IiiEEE7_M_addrEv
FNDA:0,_ZN9__gnu_cxx16__aligned_membufISt4pairIKNSt7__cxx1112basic_stringIcSt11char_traitsIcESaIcEEES1_IiiEEE7_M_addrEv
FN:72,_ZN9__gnu_cxx16__aligned_membufIiE6_M_ptrEv
FNDA:0,_ZN9__gnu_cxx16__aligned_membufIiE6_M_ptrEv
FN:72,_ZN9__gnu_cxx16__aligned_membufISt4pairIKNSt7__cxx1112basic_stringIcSt11char_traitsIcESaIcEEES1_IiiEEE6_M_ptrEv
FNDA:0,_ZN9__gnu_cxx16__aligned_membufISt4pairIKNSt7__cxx1112basic_stringIcSt11char_traitsIcESaIcEEES1_IiiEEE6_M_ptrEv
DA:64,0
DA:65,0
DA:64,0
DA:65,0
DA:72,0
DA:73,0
DA:72,0
DA:73,0
end_of_record
SF:/usr/include/c++/11/tuple
FN:80,_ZNSt10_Head_baseILm1ESt14default_deleteINSt7__cxx1112basic_stringIcSt11char_traitsIcESaIcEEEELb1EEC2Ev
FNDA:14,_ZNSt10_Head_baseILm1ESt14default_deleteINSt7__cxx1112basic_stringIcSt11char_traitsIcESaIcEEEELb1EEC2Ev
FN:124,_ZNSt10_Head_baseILm1ESt14default_deleteINSt7__cxx1118basic_stringstreamIcSt11char_traitsIcESaIcEEEELb1EE7_M_headERS8_
FNDA:56,_ZNSt10_Head_baseILm1ESt14default_deleteINSt7__cxx1118basic_stringstreamIcSt11char_traitsIcESaIcEEEELb1EE7_M_headERS8_
FN:124,_ZNSt10_Head_baseILm1ESt14default_deleteINSt7__cxx1112basic_stringIcSt11char_traitsIcESaIcEEEELb1EE7_M_headERS8_
FNDA:0,_ZNSt10_Head_baseILm1ESt14default_deleteINSt7__cxx1112basic_stringIcSt11char_traitsIcESaIcEEEELb1EE7_M_headERS8_
FN:189,_ZNSt10_Head_baseILm0EPNSt7__cxx1112basic_stringIcSt11char_traitsIcESaIcEEELb0EEC2Ev
FNDA:14,_ZNSt10_Head_baseILm0EPNSt7__cxx1112basic_stringIcSt11char_traitsIcESaIcEEELb0EEC2Ev
FN:233,_ZNSt10_Head_baseILm0EPNSt7__cxx1112basic_stringIcSt11char_traitsIcESaIcEEELb0EE7_M_headERS7_
FNDA:14,_ZNSt10_Head_baseILm0EPNSt7__cxx1112basic_stringIcSt11char_traitsIcESaIcEEELb0EE7_M_headERS7_
FN:233,_ZNSt10_Head_baseILm0EPNSt7__cxx1118basic_stringstreamIcSt11char_traitsIcESaIcEEELb0EE7_M_headERS7_
FNDA:112,_ZNSt10_Head_baseILm0EPNSt7__cxx1118basic_stringstreamIcSt11char_traitsIcESaIcEEELb0EE7_M_headERS7_
FN:236,_ZNSt10_Head_baseILm0EPNSt7__cxx1112basic_stringIcSt11char_traitsIcESaIcEEELb0EE7_M_headERKS7_
FNDA:0,_ZNSt10_Head_baseILm0EPNSt7__cxx1112basic_stringIcSt11char_traitsIcESaIcEEELb0EE7_M_headERKS7_
FN:268,_ZNSt11_Tuple_implILm0EJPNSt7__cxx1118basic_stringstreamIcSt11char_traitsIcESaIcEEESt14default_deleteIS5_EEE7_M_headERS9_
FNDA:112,_ZNSt11_Tuple_implILm0EJPNSt7__cxx1118basic_stringstreamIcSt11char_traitsIcESaIcEEESt14default_deleteIS5_EEE7_M_headERS9_
FN:268,_ZNSt11_Tuple_implILm0EJPNSt7__cxx1112basic_stringIcSt11char_traitsIcESaIcEEESt14default_deleteIS5_EEE7_M_headERS9_
FNDA:14,_ZNSt11_Tuple_implILm0EJPNSt7__cxx1112basic_stringIcSt11char_traitsIcESaIcEEESt14default_deleteIS5_EEE7_M_headERS9_
FN:271,_ZNSt11_Tuple_implILm0EJPNSt7__cxx1112basic_stringIcSt11char_traitsIcESaIcEEESt14default_deleteIS5_EEE7_M_headERKS9_
FNDA:0,_ZNSt11_Tuple_implILm0EJPNSt7__cxx1112basic_stringIcSt11char_traitsIcESaIcEEESt14default_deleteIS5_EEE7_M_headERKS9_
FN:279,_ZNSt11_Tuple_implILm0EJPNSt7__cxx1112basic_stringIcSt11char_traitsIcESaIcEEESt14default_deleteIS5_EEEC2Ev
FNDA:14,_ZNSt11_Tuple_implILm0EJPNSt7__cxx1112basic_stringIcSt11char_traitsIcESaIcEEESt14default_deleteIS5_EEEC2Ev
FN:424,_ZNSt11_Tuple_implILm1EJSt14default_deleteINSt7__cxx1112basic_stringIcSt11char_traitsIcESaIcEEEEEE7_M_headERS8_
FNDA:0,_ZNSt11_Tuple_implILm1EJSt14default_deleteINSt7__cxx1112basic_stringIcSt11char_traitsIcESaIcEEEEEE7_M_headERS8_
FN:424,_ZNSt11_Tuple_implILm1EJSt14default_deleteINSt7__cxx1118basic_stringstreamIcSt11char_traitsIcESaIcEEEEEE7_M_headERS8_
FNDA:56,_ZNSt11_Tuple_implILm1EJSt14default_deleteINSt7__cxx1118basic_stringstreamIcSt11char_traitsIcESaIcEEEEEE7_M_headERS8_
FN:430,_ZNSt11_Tuple_implILm1EJSt14default_deleteINSt7__cxx1112basic_stringIcSt11char_traitsIcESaIcEEEEEEC2Ev
FNDA:14,_ZNSt11_Tuple_implILm1EJSt14default_deleteINSt7__cxx1112basic_stringIcSt11char_traitsIcESaIcEEEEEEC2Ev
FN:1049,_ZNSt5tupleIJPNSt7__cxx1112basic_stringIcSt11char_traitsIcESaIcEEESt14default_deleteIS5_EEEC2ILb1ELb1EEEv
FNDA:14,_ZNSt5tupleIJPNSt7__cxx1112basic_stringIcSt11char_traitsIcESaIcEEESt14default_deleteIS5_EEEC2ILb1ELb1EEEv
FN:1377,_ZSt12__get_helperILm1ESt14default_deleteINSt7__cxx1118basic_stringstreamIcSt11char_traitsIcESaIcEEEEJEERT0_RSt11_Tuple_implIXT_EJS8_DpT1_EE
FNDA:56,_ZSt12__get_helperILm1ESt14default_deleteINSt7__cxx1118basic_stringstreamIcSt11char_traitsIcESaIcEEEEJEERT0_RSt11_Tuple_implIXT_EJS8_DpT1_EE
FN:1377,_ZSt12__get_helperILm1ESt14default_deleteINSt7__cxx1112basic_stringIcSt11char_traitsIcESaIcEEEEJEERT0_RSt11_Tuple_implIXT_EJS8_DpT1_EE
FNDA:0,_ZSt12__get_helperILm1ESt14default_deleteINSt7__cxx1112basic_stringIcSt11char_traitsIcESaIcEEEEJEERT0_RSt11_Tuple_implIXT_EJS8_DpT1_EE
FN:1377,_ZSt12__get_helperILm0EPNSt7__cxx1112basic_stringIcSt11char_traitsIcESaIcEEEJSt14default_deleteIS5_EEERT0_RSt11_Tuple_implIXT_EJS9_DpT1_EE
FNDA:14,_ZSt12__get_helperILm0EPNSt7__cxx1112basic_stringIcSt11char_traitsIcESaIcEEEJSt14default_deleteIS5_EEERT0_RSt11_Tuple_implIXT_EJS9_DpT1_EE
FN:1377,_ZSt12__get_helperILm0EPNSt7__cxx1118basic_stringstreamIcSt11char_traitsIcESaIcEEEJSt14default_deleteIS5_EEERT0_RSt11_Tuple_implIXT_EJS9_DpT1_EE
FNDA:112,_ZSt12__get_helperILm0EPNSt7__cxx1118basic_stringstreamIcSt11char_traitsIcESaIcEEEJSt14default_deleteIS5_EEERT0_RSt11_Tuple_implIXT_EJS9_DpT1_EE
FN:1382,_ZSt12__get_helperILm0EPNSt7__cxx1112basic_stringIcSt11char_traitsIcESaIcEEEJSt14default_deleteIS5_EEERKT0_RKSt11_Tuple_implIXT_EJS9_DpT1_EE
FNDA:0,_ZSt12__get_helperILm0EPNSt7__cxx1112basic_stringIcSt11char_traitsIcESaIcEEEJSt14default_deleteIS5_EEERKT0_RKSt11_Tuple_implIXT_EJS9_DpT1_EE
FN:1393,_ZSt3getILm1EJPNSt7__cxx1118basic_stringstreamIcSt11char_traitsIcESaIcEEESt14default_deleteIS5_EEERNSt13tuple_elementIXT_ESt5tupleIJDpT0_EEE4typeERSD_
FNDA:56,_ZSt3getILm1EJPNSt7__cxx1118basic_stringstreamIcSt11char_traitsIcESaIcEEESt14default_deleteIS5_EEERNSt13tuple_elementIXT_ESt5tupleIJDpT0_EEE4typeERSD_
FN:1393,_ZSt3getILm1EJPNSt7__cxx1112basic_stringIcSt11char_traitsIcESaIcEEESt14default_deleteIS5_EEERNSt13tuple_elementIXT_ESt5tupleIJDpT0_EEE4typeERSD_
FNDA:0,_ZSt3getILm1EJPNSt7__cxx1112basic_stringIcSt11char_traitsIcESaIcEEESt14default_deleteIS5_EEERNSt13tuple_elementIXT_ESt5tupleIJDpT0_EEE4typeERSD_
FN:1393,_ZSt3getILm0EJPNSt7__cxx1112basic_stringIcSt11char_traitsIcESaIcEEESt14default_deleteIS5_EEERNSt13tuple_elementIXT_ESt5tupleIJDpT0_EEE4typeERSD_
FNDA:14,_ZSt3getILm0EJPNSt7__cxx1112basic_stringIcSt11char_traitsIcESaIcEEESt14default_deleteIS5_EEERNSt13tuple_elementIXT_ESt5tupleIJDpT0_EEE4typeERSD_
FN:1393,_ZSt3getILm0EJPNSt7__cxx1118basic_stringstreamIcSt11char_traitsIcESaIcEEESt14default_deleteIS5_EEERNSt13tuple_elementIXT_ESt5tupleIJDpT0_EEE4typeERSD_
FNDA:112,_ZSt3getILm0EJPNSt7__cxx1118basic_stringstreamIcSt11char_traitsIcESaIcEEESt14default_deleteIS5_EEERNSt13tuple_elementIXT_ESt5tupleIJDpT0_EEE4typeERSD_
FN:1399,_ZSt3getILm0EJPNSt7__cxx1112basic_stringIcSt11char_traitsIcESaIcEEESt14default_deleteIS5_EEERKNSt13tuple_elementIXT_ESt5tupleIJDpT0_EEE4typeERKSD_
FNDA:0,_ZSt3getILm0EJPNSt7__cxx1112basic_stringIcSt11char_traitsIcESaIcEEESt14default_deleteIS5_EEERKNSt13tuple_elementIXT_ESt5tupleIJDpT0_EEE4typeERKSD_
DA:80,14
DA:81,14
DA:124,56
DA:124,0
DA:189,14
DA:190,14
DA:233,14
DA:233,112
DA:236,0
DA:268,14
DA:268,112
DA:271,0
DA:279,14
DA:280,14
DA:424,56
DA:424,0
DA:430,14
DA:431,14
DA:1049,14
DA:1051,14
DA:1377,56
DA:1378,56
DA:1377,0
DA:1378,0
DA:1377,14
DA:1378,14
DA:1377,112
DA:1378,112
DA:1382,0
DA:1383,0
DA:1393,56
DA:1394,56
DA:1393,0
DA:1394,0
DA:1393,14
DA:1394,14
DA:1393,112
DA:1394,112
DA:1399,0
DA:1400,0
end_of_record
SF:/usr/include/c++/11/bits/stl_construct.h
FN:146,_ZSt8_DestroyISt3setIiSt4lessIiESaIiEEEvPT_
FNDA:0,_ZSt8_DestroyISt3setIiSt4lessIiESaIiEEEvPT_
FN:160,_ZNSt12_Destroy_auxILb0EE9__destroyIPSt3setIiSt4lessIiESaIiEEEEvT_S8_
FNDA:0,_ZNSt12_Destroy_auxILb0EE9__destroyIPSt3setIiSt4lessIiESaIiEEEEvT_S8_
FN:182,_ZSt8_DestroyIPSt3setIiSt4lessIiESaIiEEEvT_S6_
FNDA:0,_ZSt8_DestroyIPSt3setIiSt4lessIiESaIiEEEvT_S6_
DA:146,0
DA:151,0
DA:153,0
DA:160,0
DA:162,0
DA:163,0
DA:164,0
DA:182,0
DA:196,0
DA:197,0
end_of_record
SF:/usr/include/c++/11/bits/basic_string.tcc
FN:206,_ZNSt7__cxx1112basic_stringIcSt11char_traitsIcESaIcEE12_M_constructIPcEEvT_S7_St20forward_iterator_tag
FNDA:0,_ZNSt7__cxx1112basic_stringIcSt11char_traitsIcESaIcEE12_M_constructIPcEEvT_S7_St20forward_iterator_tag
FN:206,_ZNSt7__cxx1112basic_stringIcSt11char_traitsIcESaIcEE12_M_constructIPKcEEvT_S8_St20forward_iterator_tag
FNDA:0,_ZNSt7__cxx1112basic_stringIcSt11char_traitsIcESaIcEE12_M_constructIPKcEEvT_S8_St20forward_iterator_tag
DA:206,0
DA:211,0
DA:212,0
DA:215,0
DA:217,0
DA:219,0
DA:220,0
DA:225,0
DA:226,0
DA:228,0
DA:229,0
DA:232,0
DA:233,0
DA:206,0
DA:211,0
DA:212,0
DA:215,0
DA:217,0
DA:219,0
DA:220,0
DA:225,0
DA:226,0
DA:228,0
DA:229,0
DA:232,0
DA:233,0
end_of_record
SF:/mnt/c/Users/Jeamh/CLionProjects/Examen1/pregunta-3/headers/BuddySystem.hpp
end_of_record
SF:/mnt/c/Users/Jeamh/CLionProjects/Examen1/pregunta-3/ext/googletest/googletest/include/gtest/internal/gtest-internal.h
FN:437,_ZN7testing8internal15TestFactoryBaseD0Ev
FNDA:0,_ZN7testing8internal15TestFactoryBaseD0Ev
FN:437,_ZN7testing8internal15TestFactoryBaseD2Ev
FNDA:4,_ZN7testing8internal15TestFactoryBaseD2Ev
FN:444,_ZN7testing8internal15TestFactoryBaseC2Ev
FNDA:4,_ZN7testing8internal15TestFactoryBaseC2Ev
FN:456,_ZN7testing8internal15TestFactoryImplI33BuddySystemTest_Construccion_TestE10CreateTestEv
FNDA:1,_ZN7testing8internal15TestFactoryImplI33BuddySystemTest_Construccion_TestE10CreateTestEv
FN:456,_ZN7testing8internal15TestFactoryImplI45BuddySystemTest_ReservaYLiberaRightMerge_TestE10CreateTestEv
FNDA:1,_ZN7testing8internal15TestFactoryImplI45BuddySystemTest_ReservaYLiberaRightMerge_TestE10CreateTestEv
FN:456,_ZN7testing8internal15TestFactoryImplI44BuddySystemTest_ReservaYLiberaLeftMerge_TestE10CreateTestEv
FNDA:1,_ZN7testing8internal15TestFactoryImplI44BuddySystemTest_ReservaYLiberaLeftMerge_TestE10CreateTestEv
FN:456,_ZN7testing8internal15TestFactoryImplI44BuddySystemTest_RepresentacionDeMemoria_TestE10CreateTestEv
FNDA:1,_ZN7testing8internal15TestFactoryImplI44BuddySystemTest_RepresentacionDeMemoria_TestE10CreateTestEv
FN:477,_ZN7testing8internal12CodeLocationC2ERKNSt7__cxx1112basic_stringIcSt11char_traitsIcESaIcEEEi
FNDA:4,_ZN7testing8internal12CodeLocationC2ERKNSt7__cxx1112basic_stringIcSt11char_traitsIcESaIcEEEi
FN:490,_ZN7testing8internal19GetNotDefaultOrNullEPFvvES2_
FNDA:16,_ZN7testing8internal19GetNotDefaultOrNullEPFvvES2_
FN:505,_ZN7testing8internal16SuiteApiResolverINS_4TestEE19GetSetUpCaseOrSuiteEPKci
FNDA:4,_ZN7testing8internal16SuiteApiResolverINS_4TestEE19GetSetUpCaseOrSuiteEPKci
FN:526,_ZN7testing8internal16SuiteApiResolverINS_4TestEE22GetTearDownCaseOrSuiteEPKci
FNDA:4,_ZN7testing8internal16SuiteApiResolverINS_4TestEE22GetTearDownCaseOrSuiteEPKci
DA:437,0
DA:437,4
DA:444,4
DA:456,1
DA:456,1
DA:456,1
DA:456,1
DA:477,4
DA:478,4
DA:490,16
DA:492,16
DA:505,4
DA:509,4
DA:511,4
DA:513,4
DA:516,0
DA:518,4
DA:526,4
DA:530,4
DA:532,4
DA:534,4
DA:537,0
DA:539,4
end_of_record
SF:/mnt/c/Users/Jeamh/CLionProjects/Examen1/pregunta-3/ext/googletest/googletest/include/gtest/gtest.h
FN:255,_ZN7testing4Test14SetUpTestSuiteEv
FNDA:0,_ZN7testing4Test14SetUpTestSuiteEv
FN:263,_ZN7testing4Test17TearDownTestSuiteEv
FNDA:0,_ZN7testing4Test17TearDownTestSuiteEv
FN:268,_ZN7testing4Test16TearDownTestCaseEv
FNDA:0,_ZN7testing4Test16TearDownTestCaseEv
FN:269,_ZN7testing4Test13SetUpTestCaseEv
FNDA:0,_ZN7testing4Test13SetUpTestCaseEv
FN:356,_ZN7testing4Test5SetupEv
FNDA:0,_ZN7testing4Test5SetupEv
FN:1358,_ZN7testing8internal18CmpHelperEQFailureINSt7__cxx1112basic_stringIcSt11char_traitsIcESaIcEEES7_EENS_15AssertionResultEPKcSA_RKT_RKT0_
FNDA:0,_ZN7testing8internal18CmpHelperEQFailureINSt7__cxx1112basic_stringIcSt11char_traitsIcESaIcEEES7_EENS_15AssertionResultEPKcSA_RKT_RKT0_
FN:1358,_ZN7testing8internal18CmpHelperEQFailureImiEENS_15AssertionResultEPKcS4_RKT_RKT0_
FNDA:0,_ZN7testing8internal18CmpHelperEQFailureImiEENS_15AssertionResultEPKcS4_RKT_RKT0_
FN:1358,_ZN7testing8internal18CmpHelperEQFailureIiiEENS_15AssertionResultEPKcS4_RKT_RKT0_
FNDA:0,_ZN7testing8internal18CmpHelperEQFailureIiiEENS_15AssertionResultEPKcS4_RKT_RKT0_
FN:1375,_ZN7testing8internal11CmpHelperEQINSt7__cxx1112basic_stringIcSt11char_traitsIcESaIcEEES7_EENS_15AssertionResultEPKcSA_RKT_RKT0_
FNDA:2,_ZN7testing8internal11CmpHelperEQINSt7__cxx1112basic_stringIcSt11char_traitsIcESaIcEEES7_EENS_15AssertionResultEPKcSA_RKT_RKT0_
FN:1375,_ZN7testing8internal11CmpHelperEQImiEENS_15AssertionResultEPKcS4_RKT_RKT0_
FNDA:1,_ZN7testing8internal11CmpHelperEQImiEENS_15AssertionResultEPKcS4_RKT_RKT0_
FN:1375,_ZN7testing8internal11CmpHelperEQIiiEENS_15AssertionResultEPKcS4_RKT_RKT0_
FNDA:1,_ZN7testing8internal11CmpHelperEQIiiEENS_15AssertionResultEPKcS4_RKT_RKT0_
FN:1394,_ZN7testing8internal8EqHelper7CompareINSt7__cxx1112basic_stringIcSt11char_traitsIcESaIcEEES8_LPv0EEENS_15AssertionResultEPKcSC_RKT_RKT0_
FNDA:2,_ZN7testing8internal8EqHelper7CompareINSt7__cxx1112basic_stringIcSt11char_traitsIcESaIcEEES8_LPv0EEENS_15AssertionResultEPKcSC_RKT_RKT0_
FN:1394,_ZN7testing8internal8EqHelper7CompareImiLPv0EEENS_15AssertionResultEPKcS6_RKT_RKT0_
FNDA:1,_ZN7testing8internal8EqHelper7CompareImiLPv0EEENS_15AssertionResultEPKcS6_RKT_RKT0_
FN:1394,_ZN7testing8internal8EqHelper7CompareIiiLPv0EEENS_15AssertionResultEPKcS6_RKT_RKT0_
FNDA:1,_ZN7testing8internal8EqHelper7CompareIiiLPv0EEENS_15AssertionResultEPKcS6_RKT_RKT0_
DA:255,0
DA:263,0
DA:268,0
DA:269,0
DA:356,0
DA:1358,0
DA:1363,0
DA:1358,0
DA:1363,0
DA:1358,0
DA:1363,0
DA:1375,2
DA:1378,2
DA:1379,2
DA:1382,0
DA:1375,1
DA:1378,1
DA:1379,1
DA:1382,0
DA:1375,1
DA:1378,1
DA:1379,1
DA:1382,0
DA:1394,2
DA:1397,2
DA:1394,1
DA:1397,1
DA:1394,1
DA:1397,1
end_of_record
SF:/usr/include/c++/11/ext/alloc_traits.h
FN:97,_ZN9__gnu_cxx14__alloc_traitsISaIcEcE17_S_select_on_copyERKS1_
FNDA:0,_ZN9__gnu_cxx14__alloc_traitsISaIcEcE17_S_select_on_copyERKS1_
DA:97,0
DA:98,0
end_of_record
SF:/usr/include/c++/11/bits/alloc_traits.h
FN:495,_ZNSt16allocator_traitsISaISt13_Rb_tree_nodeIiEEE10deallocateERS2_PS1_m
FNDA:0,_ZNSt16allocator_traitsISaISt13_Rb_tree_nodeIiEEE10deallocateERS2_PS1_m
FN:495,_ZNSt16allocator_traitsISaISt13_Rb_tree_nodeISt4pairIKNSt7__cxx1112basic_stringIcSt11char_traitsIcESaIcEEES1_IiiEEEEE10deallocateERSC_PSB_m
FNDA:0,_ZNSt16allocator_traitsISaISt13_Rb_tree_nodeISt4pairIKNSt7__cxx1112basic_stringIcSt11char_traitsIcESaIcEEES1_IiiEEEEE10deallocateERSC_PSB_m
FN:495,_ZNSt16allocator_traitsISaImEE10deallocateERS0_Pmm
FNDA:0,_ZNSt16allocator_traitsISaImEE10deallocateERS0_Pmm
FN:495,_ZNSt16allocator_traitsISaISt3setIiSt4lessIiESaIiEEEE10deallocateERS5_PS4_m
FNDA:0,_ZNSt16allocator_traitsISaISt3setIiSt4lessIiESaIiEEEE10deallocateERS5_PS4_m
FN:531,_ZNSt16allocator_traitsISaISt13_Rb_tree_nodeIiEEE7destroyIiEEvRS2_PT_
FNDA:0,_ZNSt16allocator_traitsISaISt13_Rb_tree_nodeIiEEE7destroyIiEEvRS2_PT_
FN:531,_ZNSt16allocator_traitsISaISt13_Rb_tree_nodeISt4pairIKNSt7__cxx1112basic_stringIcSt11char_traitsIcESaIcEEES1_IiiEEEEE7destroyISA_EEvRSC_PT_
FNDA:0,_ZNSt16allocator_traitsISaISt13_Rb_tree_nodeISt4pairIKNSt7__cxx1112basic_stringIcSt11char_traitsIcESaIcEEES1_IiiEEEEE7destroyISA_EEvRSC_PT_
FN:562,_ZNSt16allocator_traitsISaIcEE37select_on_container_copy_constructionERKS0_
FNDA:0,_ZNSt16allocator_traitsISaIcEE37select_on_container_copy_constructionERKS0_
FN:845,_ZSt8_DestroyIPSt3setIiSt4lessIiESaIiEES4_EvT_S6_RSaIT0_E
FNDA:0,_ZSt8_DestroyIPSt3setIiSt4lessIiESaIiEES4_EvT_S6_RSaIT0_E
DA:495,0
DA:496,0
DA:495,0
DA:496,0
DA:495,0
DA:496,0
DA:495,0
DA:496,0
DA:531,0
DA:535,0
DA:539,0
DA:531,0
DA:535,0
DA:539,0
DA:562,0
DA:563,0
DA:845,0
DA:848,0
DA:849,0
end_of_record
SF:/usr/include/c++/11/bits/stl_tree.h
FN:234,_ZNSt13_Rb_tree_nodeIiE9_M_valptrEv
FNDA:0,_ZNSt13_Rb_tree_nodeIiE9_M_valptrEv
FN:234,_ZNSt13_Rb_tree_nodeISt4pairIKNSt7__cxx1112basic_stringIcSt11char_traitsIcESaIcEEES0_IiiEEE9_M_valptrEv
FNDA:0,_ZNSt13_Rb_tree_nodeISt4pairIKNSt7__cxx1112basic_stringIcSt11char_traitsIcESaIcEEES0_IiiEEE9_M_valptrEv
FN:547,_ZNSt8_Rb_treeIiiSt9_IdentityIiESt4lessIiESaIiEE21_M_get_Node_allocatorEv
FNDA:0,_ZNSt8_Rb_treeIiiSt9_IdentityIiESt4lessIiESaIiEE21_M_get_Node_allocatorEv
FN:547,_ZNSt8_Rb_treeINSt7__cxx1112basic_stringIcSt11char_traitsIcESaIcEEESt4pairIKS5_S6_IiiEESt10_Select1stIS9_ESt4lessIS5_ESaIS9_EE21_M_get_Node_allocatorEv
FNDA:0,_ZNSt8_Rb_treeINSt7__cxx1112basic_stringIcSt11char_traitsIcESaIcEEESt4pairIKS5_S6_IiiEESt10_Select1stIS9_ESt4lessIS5_ESaIS9_EE21_M_get_Node_allocatorEv
FN:564,_ZNSt8_Rb_treeINSt7__cxx1112basic_stringIcSt11char_traitsIcESaIcEEESt4pairIKS5_S6_IiiEESt10_Select1stIS9_ESt4lessIS5_ESaIS9_EE11_M_put_nodeEPSt13_Rb_tree_nodeIS9_E
FNDA:0,_ZNSt8_Rb_treeINSt7__cxx1112basic_stringIcSt11char_traitsIcESaIcEEESt4pairIKS5_S6_IiiEESt10_Select1stIS9_ESt4lessIS5_ESaIS9_EE11_M_put_nodeEPSt13_Rb_tree_nodeIS9_E
FN:564,_ZNSt8_Rb_treeIiiSt9_IdentityIiESt4lessIiESaIiEE11_M_put_nodeEPSt13_Rb_tree_nodeIiE
FNDA:0,_ZNSt8_Rb_treeIiiSt9_IdentityIiESt4lessIiESaIiEE11_M_put_nodeEPSt13_Rb_tree_nodeIiE
FN:618,_ZNSt8_Rb_treeINSt7__cxx1112basic_stringIcSt11char_traitsIcESaIcEEESt4pairIKS5_S6_IiiEESt10_Select1stIS9_ESt4lessIS5_ESaIS9_EE15_M_destroy_nodeEPSt13_Rb_tree_nodeIS9_E
FNDA:0,_ZNSt8_Rb_treeINSt7__cxx1112basic_stringIcSt11char_traitsIcESaIcEEESt4pairIKS5_S6_IiiEESt10_Select1stIS9_ESt4lessIS5_ESaIS9_EE15_M_destroy_nodeEPSt13_Rb_tree_nodeIS9_E
FN:618,_ZNSt8_Rb_treeIiiSt9_IdentityIiESt4lessIiESaIiEE15_M_destroy_nodeEPSt13_Rb_tree_nodeIiE
FNDA:0,_ZNSt8_Rb_treeIiiSt9_IdentityIiESt4lessIiESaIiEE15_M_destroy_nodeEPSt13_Rb_tree_nodeIiE
FN:629,_ZNSt8_Rb_treeIiiSt9_IdentityIiESt4lessIiESaIiEE12_M_drop_nodeEPSt13_Rb_tree_nodeIiE
FNDA:0,_ZNSt8_Rb_treeIiiSt9_IdentityIiESt4lessIiESaIiEE12_M_drop_nodeEPSt13_Rb_tree_nodeIiE
FN:629,_ZNSt8_Rb_treeINSt7__cxx1112basic_stringIcSt11char_traitsIcESaIcEEESt4pairIKS5_S6_IiiEESt10_Select1stIS9_ESt4lessIS5_ESaIS9_EE12_M_drop_nodeEPSt13_Rb_tree_nodeIS9_E
FNDA:0,_ZNSt8_Rb_treeINSt7__cxx1112basic_stringIcSt11char_traitsIcESaIcEEESt4pairIKS5_S6_IiiEESt10_Select1stIS9_ESt4lessIS5_ESaIS9_EE12_M_drop_nodeEPSt13_Rb_tree_nodeIS9_E
FN:734,_ZNKSt8_Rb_treeINSt7__cxx1112basic_stringIcSt11char_traitsIcESaIcEEESt4pairIKS5_S6_IiiEESt10_Select1stIS9_ESt4lessIS5_ESaIS9_EE9_M_mbeginEv
FNDA:0,_ZNKSt8_Rb_treeINSt7__cxx1112basic_stringIcSt11char_traitsIcESaIcEEESt4pairIKS5_S6_IiiEESt10_Select1stIS9_ESt4lessIS5_ESaIS9_EE9_M_mbeginEv
FN:734,_ZNKSt8_Rb_treeIiiSt9_IdentityIiESt4lessIiESaIiEE9_M_mbeginEv
FNDA:0,_ZNKSt8_Rb_treeIiiSt9_IdentityIiESt4lessIiESaIiEE9_M_mbeginEv
FN:738,_ZNSt8_Rb_treeIiiSt9_IdentityIiESt4lessIiESaIiEE8_M_beginEv
FNDA:0,_ZNSt8_Rb_treeIiiSt9_IdentityIiESt4lessIiESaIiEE8_M_beginEv
FN:738,_ZNSt8_Rb_treeINSt7__cxx1112basic_stringIcSt11char_traitsIcESaIcEEESt4pairIKS5_S6_IiiEESt10_Select1stIS9_ESt4lessIS5_ESaIS9_EE8_M_beginEv
FNDA:0,_ZNSt8_Rb_treeINSt7__cxx1112basic_stringIcSt11char_traitsIcESaIcEEESt4pairIKS5_S6_IiiEESt10_Select1stIS9_ESt4lessIS5_ESaIS9_EE8_M_beginEv
FN:779,_ZNSt8_Rb_treeIiiSt9_IdentityIiESt4lessIiESaIiEE7_S_leftEPSt18_Rb_tree_node_base
FNDA:0,_ZNSt8_Rb_treeIiiSt9_IdentityIiESt4lessIiESaIiEE7_S_leftEPSt18_Rb_tree_node_base
FN:779,_ZNSt8_Rb_treeINSt7__cxx1112basic_stringIcSt11char_traitsIcESaIcEEESt4pairIKS5_S6_IiiEESt10_Select1stIS9_ESt4lessIS5_ESaIS9_EE7_S_leftEPSt18_Rb_tree_node_base
FNDA:0,_ZNSt8_Rb_treeINSt7__cxx1112basic_stringIcSt11char_traitsIcESaIcEEESt4pairIKS5_S6_IiiEESt10_Select1stIS9_ESt4lessIS5_ESaIS9_EE7_S_leftEPSt18_Rb_tree_node_base
FN:787,_ZNSt8_Rb_treeIiiSt9_IdentityIiESt4lessIiESaIiEE8_S_rightEPSt18_Rb_tree_node_base
FNDA:0,_ZNSt8_Rb_treeIiiSt9_IdentityIiESt4lessIiESaIiEE8_S_rightEPSt18_Rb_tree_node_base
FN:787,_ZNSt8_Rb_treeINSt7__cxx1112basic_stringIcSt11char_traitsIcESaIcEEESt4pairIKS5_S6_IiiEESt10_Select1stIS9_ESt4lessIS5_ESaIS9_EE8_S_rightEPSt18_Rb_tree_node_base
FNDA:0,_ZNSt8_Rb_treeINSt7__cxx1112basic_stringIcSt11char_traitsIcESaIcEEESt4pairIKS5_S6_IiiEESt10_Select1stIS9_ESt4lessIS5_ESaIS9_EE8_S_rightEPSt18_Rb_tree_node_base
FN:983,_ZNSt8_Rb_treeIiiSt9_IdentityIiESt4lessIiESaIiEED2Ev
FNDA:0,_ZNSt8_Rb_treeIiiSt9_IdentityIiESt4lessIiESaIiEED2Ev
FN:983,_ZNSt8_Rb_treeINSt7__cxx1112basic_stringIcSt11char_traitsIcESaIcEEESt4pairIKS5_S6_IiiEESt10_Select1stIS9_ESt4lessIS5_ESaIS9_EED2Ev
FNDA:0,_ZNSt8_Rb_treeINSt7__cxx1112basic_stringIcSt11char_traitsIcESaIcEEESt4pairIKS5_S6_IiiEESt10_Select1stIS9_ESt4lessIS5_ESaIS9_EED2Ev
FN:1883,_ZNSt8_Rb_treeIiiSt9_IdentityIiESt4lessIiESaIiEE8_M_eraseEPSt13_Rb_tree_nodeIiE
FNDA:0,_ZNSt8_Rb_treeIiiSt9_IdentityIiESt4lessIiESaIiEE8_M_eraseEPSt13_Rb_tree_nodeIiE
FN:1883,_ZNSt8_Rb_treeINSt7__cxx1112basic_stringIcSt11char_traitsIcESaIcEEESt4pairIKS5_S6_IiiEESt10_Select1stIS9_ESt4lessIS5_ESaIS9_EE8_M_eraseEPSt13_Rb_tree_nodeIS9_E
FNDA:0,_ZNSt8_Rb_treeINSt7__cxx1112basic_stringIcSt11char_traitsIcESaIcEEESt4pairIKS5_S6_IiiEESt10_Select1stIS9_ESt4lessIS5_ESaIS9_EE8_M_eraseEPSt13_Rb_tree_nodeIS9_E
DA:234,0
DA:235,0
DA:234,0
DA:235,0
DA:547,0
DA:548,0
DA:547,0
DA:548,0
DA:564,0
DA:565,0
DA:564,0
DA:565,0
DA:618,0
DA:623,0
DA:624,0
DA:626,0
DA:618,0
DA:623,0
DA:624,0
DA:626,0
DA:629,0
DA:631,0
DA:632,0
DA:633,0
DA:629,0
DA:631,0
DA:632,0
DA:633,0
DA:734,0
DA:735,0
DA:734,0
DA:735,0
DA:738,0
DA:739,0
DA:738,0
DA:739,0
DA:779,0
DA:780,0
DA:779,0
DA:780,0
DA:787,0
DA:788,0
DA:787,0
DA:788,0
DA:983,0
DA:984,0
DA:983,0
DA:984,0
DA:1883,0
DA:1887,0
DA:1889,0
DA:1890,0
DA:1891,0
DA:1892,0
DA:1894,0
DA:1883,0
DA:1887,0
DA:1889,0
DA:1890,0
DA:1891,0
DA:1892,0
DA:1894,0
end_of_record
SF:/mnt/c/Users/Jeamh/CLionProjects/Examen1/pregunta-3/ext/googletest/googletest/include/gtest/internal/gtest-port.h
FN:1060,_ZN7testing8internal8GTestLog9GetStreamEv
FNDA:0,_ZN7testing8internal8GTestLog9GetStreamEv
DA:1060,0
end_of_record
SF:/usr/include/c++/11/bits/stl_map.h
FN:302,_ZNSt3mapINSt7__cxx1112basic_stringIcSt11char_traitsIcESaIcEEESt4pairIiiESt4lessIS5_ESaIS6_IKS5_S7_EEED2Ev
FNDA:0,_ZNSt3mapINSt7__cxx1112basic_stringIcSt11char_traitsIcESaIcEEESt4pairIiiESt4lessIS5_ESaIS6_IKS5_S7_EEED2Ev
DA:302,0
end_of_record
SF:/usr/include/c++/11/bits/stl_pair.h
end_of_record
SF:/usr/include/c++/11/bits/allocator.h
FN:174,_ZNSaISt13_Rb_tree_nodeIiEED2Ev
FNDA:0,_ZNSaISt13_Rb_tree_nodeIiEED2Ev
FN:174,_ZNSaISt3setIiSt4lessIiESaIiEEED2Ev
FNDA:0,_ZNSaISt3setIiSt4lessIiESaIiEEED2Ev
FN:174,_ZNSaImED2Ev
FNDA:0,_ZNSaImED2Ev
FN:174,_ZNSaISt13_Rb_tree_nodeISt4pairIKNSt7__cxx1112basic_stringIcSt11char_traitsIcESaIcEEES0_IiiEEEED2Ev
FNDA:0,_ZNSaISt13_Rb_tree_nodeISt4pairIKNSt7__cxx1112basic_stringIcSt11char_traitsIcESaIcEEES0_IiiEEEED2Ev
DA:174,0
DA:174,0
DA:174,0
DA:174,0
end_of_record
SF:/mnt/c/Users/Jeamh/CLionProjects/Examen1/pregunta-3/src/test.cpp
FN:4,_ZN33BuddySystemTest_Construccion_TestC2Ev
FNDA:1,_ZN33BuddySystemTest_Construccion_TestC2Ev
FN:4,_ZN33BuddySystemTest_Construccion_TestD0Ev
FNDA:1,_ZN33BuddySystemTest_Construccion_TestD0Ev
FN:4,_ZN33BuddySystemTest_Construccion_TestD2Ev
FNDA:1,_ZN33BuddySystemTest_Construccion_TestD2Ev
FN:4,_ZN33BuddySystemTest_Construccion_Test8TestBodyEv
FNDA:1,_ZN33BuddySystemTest_Construccion_Test8TestBodyEv
FN:11,_ZN45BuddySystemTest_ReservaYLiberaRightMerge_TestC2Ev
FNDA:1,_ZN45BuddySystemTest_ReservaYLiberaRightMerge_TestC2Ev
FN:11,_ZN45BuddySystemTest_ReservaYLiberaRightMerge_TestD0Ev
FNDA:1,_ZN45BuddySystemTest_ReservaYLiberaRightMerge_TestD0Ev
FN:11,_ZN45BuddySystemTest_ReservaYLiberaRightMerge_TestD2Ev
FNDA:1,_ZN45BuddySystemTest_ReservaYLiberaRightMerge_TestD2Ev
FN:11,_ZN45BuddySystemTest_ReservaYLiberaRightMerge_Test8TestBodyEv
FNDA:1,_ZN45BuddySystemTest_ReservaYLiberaRightMerge_Test8TestBodyEv
FN:33,_ZN44BuddySystemTest_ReservaYLiberaLeftMerge_TestC2Ev
FNDA:1,_ZN44BuddySystemTest_ReservaYLiberaLeftMerge_TestC2Ev
FN:33,_ZN44BuddySystemTest_ReservaYLiberaLeftMerge_TestD0Ev
FNDA:1,_ZN44BuddySystemTest_ReservaYLiberaLeftMerge_TestD0Ev
FN:33,_ZN44BuddySystemTest_ReservaYLiberaLeftMerge_TestD2Ev
FNDA:1,_ZN44BuddySystemTest_ReservaYLiberaLeftMerge_TestD2Ev
FN:33,_ZN44BuddySystemTest_ReservaYLiberaLeftMerge_Test8TestBodyEv
FNDA:1,_ZN44BuddySystemTest_ReservaYLiberaLeftMerge_Test8TestBodyEv
FN:50,_ZN44BuddySystemTest_RepresentacionDeMemoria_TestC2Ev
FNDA:1,_ZN44BuddySystemTest_RepresentacionDeMemoria_TestC2Ev
FN:50,_ZN44BuddySystemTest_RepresentacionDeMemoria_TestD0Ev
FNDA:1,_ZN44BuddySystemTest_RepresentacionDeMemoria_TestD0Ev
FN:50,_ZN44BuddySystemTest_RepresentacionDeMemoria_TestD2Ev
FNDA:1,_ZN44BuddySystemTest_RepresentacionDeMemoria_TestD2Ev
FN:50,_ZN44BuddySystemTest_RepresentacionDeMemoria_Test8TestBodyEv
FNDA:1,_ZN44BuddySystemTest_RepresentacionDeMemoria_Test8TestBodyEv
DA:4,1
DA:4,1
DA:4,1
DA:4,1
DA:5,1
DA:7,1
DA:8,1
DA:9,1
DA:11,1
DA:11,1
DA:11,1
DA:11,1
DA:12,1
DA:15,1
DA:18,1
DA:21,1
DA:24,1
DA:27,1
DA:30,1
DA:31,1
DA:33,1
DA:33,1
DA:33,1
DA:33,1
DA:34,1
DA:37,1
DA:40,1
DA:43,1
DA:46,1
DA:47,1
DA:50,1
DA:50,1
DA:50,1
DA:50,1
DA:51,1
DA:54,1
DA:55,1
DA:57,1
DA:58,2
DA:60,1
DA:63,1
DA:64,2
DA:66,1
DA:67,1
end_of_record
SF:/usr/include/c++/11/bits/char_traits.h
FN:372,_ZNSt11char_traitsIcE7compareEPKcS2_m
FNDA:2,_ZNSt11char_traitsIcE7compareEPKcS2_m
FN:393,_ZNSt11char_traitsIcE6lengthEPKc
FNDA:0,_ZNSt11char_traitsIcE6lengthEPKc
DA:372,2
DA:374,2
DA:375,0
DA:389,2
DA:393,0
DA:399,0
end_of_record
SF:/usr/include/c++/11/bits/basic_string.h
FN:251,_ZNSt7__cxx1112basic_stringIcSt11char_traitsIcESaIcEE16_M_construct_auxIPcEEvT_S7_St12__false_type
FNDA:0,_ZNSt7__cxx1112basic_stringIcSt11char_traitsIcESaIcEE16_M_construct_auxIPcEEvT_S7_St12__false_type
FN:271,_ZNSt7__cxx1112basic_stringIcSt11char_traitsIcESaIcEE12_M_constructIPcEEvT_S7_
FNDA:0,_ZNSt7__cxx1112basic_stringIcSt11char_traitsIcESaIcEE12_M_constructIPcEEvT_S7_
FN:6234,_ZSteqIcEN9__gnu_cxx11__enable_ifIXsrSt9__is_charIT_E7__valueEbE6__typeERKNSt7__cxx1112basic_stringIS3_St11char_traitsIS3_ESaIS3_EEESE_
FNDA:2,_ZSteqIcEN9__gnu_cxx11__enable_ifIXsrSt9__is_charIT_E7__valueEbE6__typeERKNSt7__cxx1112basic_stringIS3_St11char_traitsIS3_ESaIS3_EEESE_
DA:251,0
DA:255,0
DA:256,0
DA:271,0
DA:274,0
DA:275,0
DA:6234,2
DA:6236,2
DA:6237,2
DA:6238,2
end_of_record
SF:/usr/include/c++/11/bits/stl_bvector.h
FN:148,_ZNSt18_Bit_iterator_baseC2EPmj
FNDA:0,_ZNSt18_Bit_iterator_baseC2EPmj
FN:241,_ZNSt13_Bit_iteratorC2Ev
FNDA:0,_ZNSt13_Bit_iteratorC2Ev
FN:443,_ZNSt13_Bvector_baseISaIbEE18_Bvector_impl_dataC2Ev
FNDA:0,_ZNSt13_Bvector_baseISaIbEE18_Bvector_impl_dataC2Ev
FN:465,_ZNSt13_Bvector_baseISaIbEE18_Bvector_impl_data8_M_resetEv
FNDA:0,_ZNSt13_Bvector_baseISaIbEE18_Bvector_impl_data8_M_resetEv
FN:502,_ZNKSt13_Bvector_baseISaIbEE13_Bvector_impl11_M_end_addrEv
FNDA:0,_ZNKSt13_Bvector_baseISaIbEE13_Bvector_impl11_M_end_addrEv
FN:542,_ZNSt13_Bvector_baseISaIbEED2Ev
FNDA:0,_ZNSt13_Bvector_baseISaIbEED2Ev
FN:553,_ZNSt13_Bvector_baseISaIbEE13_M_deallocateEv
FNDA:0,_ZNSt13_Bvector_baseISaIbEE13_M_deallocateEv
FN:733,_ZNSt6vectorIbSaIbEED2Ev
FNDA:0,_ZNSt6vectorIbSaIbEED2Ev
DA:148,0
DA:149,0
DA:241,0
DA:443,0
DA:444,0
DA:445,0
DA:465,0
DA:466,0
DA:502,0
DA:504,0
DA:505,0
DA:506,0
DA:542,0
DA:543,0
DA:553,0
DA:555,0
DA:557,0
DA:558,0
DA:559,0
DA:561,0
DA:563,0
DA:733,0
end_of_record
SF:/usr/include/c++/11/bits/stl_vector.h
FN:276,_ZNSt12_Vector_baseISt3setIiSt4lessIiESaIiEESaIS4_EE19_M_get_Tp_allocatorEv
FNDA:0,_ZNSt12_Vector_baseISt3setIiSt4lessIiESaIiEESaIS4_EE19_M_get_Tp_allocatorEv
FN:333,_ZNSt12_Vector_baseISt3setIiSt4lessIiESaIiEESaIS4_EED2Ev
FNDA:0,_ZNSt12_Vector_baseISt3setIiSt4lessIiESaIiEESaIS4_EED2Ev
FN:350,_ZNSt12_Vector_baseISt3setIiSt4lessIiESaIiEESaIS4_EE13_M_deallocateEPS4_m
FNDA:0,_ZNSt12_Vector_baseISt3setIiSt4lessIiESaIiEESaIS4_EE13_M_deallocateEPS4_m
FN:678,_ZNSt6vectorISt3setIiSt4lessIiESaIiEESaIS4_EED2Ev
FNDA:0,_ZNSt6vectorISt3setIiSt4lessIiESaIiEESaIS4_EED2Ev
FN:918,_ZNKSt6vectorISt3setIiSt4lessIiESaIiEESaIS4_EE4sizeEv
FNDA:0,_ZNKSt6vectorISt3setIiSt4lessIiESaIiEESaIS4_EE4sizeEv
DA:276,0
DA:277,0
DA:333,0
DA:335,0
DA:336,0
DA:337,0
DA:350,0
DA:353,0
DA:354,0
DA:355,0
DA:678,0
DA:680,0
DA:681,0
DA:683,0
DA:918,0
DA:919,0
end_of_record
SF:/mnt/c/Users/Jeamh/CLionProjects/Examen1/pregunta-3/ext/googletest/googletest/include/gtest/gtest-message.h
end_of_record
SF:/mnt/c/Users/Jeamh/CLionProjects/Examen1/pregunta-3/ext/googletest/googletest/include/gtest/gtest-printers.h
FN:244,_ZN7testing8internal52internal_stream_operator_without_lexical_name_lookup13StreamPrinter10PrintValueIivEEDTcvvlsdefp0_fp_ERKT_PSo
FNDA:0,_ZN7testing8internal52internal_stream_operator_without_lexical_name_lookup13StreamPrinter10PrintValueIivEEDTcvvlsdefp0_fp_ERKT_PSo
FN:244,_ZN7testing8internal52internal_stream_operator_without_lexical_name_lookup13StreamPrinter10PrintValueImvEEDTcvvlsdefp0_fp_ERKT_PSo
FNDA:0,_ZN7testing8internal52internal_stream_operator_without_lexical_name_lookup13StreamPrinter10PrintValueImvEEDTcvvlsdefp0_fp_ERKT_PSo
FN:348,_ZN7testing8internal17PrintWithFallbackImEEvRKT_PSo
FNDA:0,_ZN7testing8internal17PrintWithFallbackImEEvRKT_PSo
FN:348,_ZN7testing8internal17PrintWithFallbackIiEEvRKT_PSo
FNDA:0,_ZN7testing8internal17PrintWithFallbackIiEEvRKT_PSo
FN:379,_ZN7testing8internal19FormatForComparisonIiiE6FormatB5cxx11ERKi
FNDA:0,_ZN7testing8internal19FormatForComparisonIiiE6FormatB5cxx11ERKi
FN:379,_ZN7testing8internal19FormatForComparisonImiE6FormatB5cxx11ERKm
FNDA:0,_ZN7testing8internal19FormatForComparisonImiE6FormatB5cxx11ERKm
FN:379,_ZN7testing8internal19FormatForComparisonIimE6FormatB5cxx11ERKi
FNDA:0,_ZN7testing8internal19FormatForComparisonIimE6FormatB5cxx11ERKi
FN:379,_ZN7testing8internal19FormatForComparisonINSt7__cxx1112basic_stringIcSt11char_traitsIcESaIcEEES7_E6FormatERKS7_
FNDA:0,_ZN7testing8internal19FormatForComparisonINSt7__cxx1112basic_stringIcSt11char_traitsIcESaIcEEES7_E6FormatERKS7_
FN:459,_ZN7testing8internal33FormatForComparisonFailureMessageIiiEENSt7__cxx1112basic_stringIcSt11char_traitsIcESaIcEEERKT_RKT0_
FNDA:0,_ZN7testing8internal33FormatForComparisonFailureMessageIiiEENSt7__cxx1112basic_stringIcSt11char_traitsIcESaIcEEERKT_RKT0_
FN:459,_ZN7testing8internal33FormatForComparisonFailureMessageImiEENSt7__cxx1112basic_stringIcSt11char_traitsIcESaIcEEERKT_RKT0_
FNDA:0,_ZN7testing8internal33FormatForComparisonFailureMessageImiEENSt7__cxx1112basic_stringIcSt11char_traitsIcESaIcEEERKT_RKT0_
FN:459,_ZN7testing8internal33FormatForComparisonFailureMessageIimEENSt7__cxx1112basic_stringIcSt11char_traitsIcESaIcEEERKT_RKT0_
FNDA:0,_ZN7testing8internal33FormatForComparisonFailureMessageIimEENSt7__cxx1112basic_stringIcSt11char_traitsIcESaIcEEERKT_RKT0_
FN:459,_ZN7testing8internal33FormatForComparisonFailureMessageINSt7__cxx1112basic_stringIcSt11char_traitsIcESaIcEEES7_EES7_RKT_RKT0_
FNDA:0,_ZN7testing8internal33FormatForComparisonFailureMessageINSt7__cxx1112basic_stringIcSt11char_traitsIcESaIcEEES7_EES7_RKT_RKT0_
FN:486,_ZN7testing8internal7PrintToImEEvRKT_PSo
FNDA:0,_ZN7testing8internal7PrintToImEEvRKT_PSo
FN:486,_ZN7testing8internal7PrintToIiEEvRKT_PSo
FNDA:0,_ZN7testing8internal7PrintToIiEEvRKT_PSo
FN:682,_ZN7testing8internal7PrintToERKNSt7__cxx1112basic_stringIcSt11char_traitsIcESaIcEEEPSo
FNDA:0,_ZN7testing8internal7PrintToERKNSt7__cxx1112basic_stringIcSt11char_traitsIcESaIcEEEPSo
FN:821,_ZN7testing8internal16UniversalPrinterIiE5PrintERKiPSo
FNDA:0,_ZN7testing8internal16UniversalPrinterIiE5PrintERKiPSo
FN:821,_ZN7testing8internal16UniversalPrinterINSt7__cxx1112basic_stringIcSt11char_traitsIcESaIcEEEE5PrintERKS7_PSo
FNDA:0,_ZN7testing8internal16UniversalPrinterINSt7__cxx1112basic_stringIcSt11char_traitsIcESaIcEEEE5PrintERKS7_PSo
FN:821,_ZN7testing8internal16UniversalPrinterImE5PrintERKmPSo
FNDA:0,_ZN7testing8internal16UniversalPrinterImE5PrintERKmPSo
FN:1011,_ZN7testing8internal21UniversalTersePrinterIiE5PrintERKiPSo
FNDA:0,_ZN7testing8internal21UniversalTersePrinterIiE5PrintERKiPSo
FN:1011,_ZN7testing8internal21UniversalTersePrinterImE5PrintERKmPSo
FNDA:0,_ZN7testing8internal21UniversalTersePrinterImE5PrintERKmPSo
FN:1011,_ZN7testing8internal21UniversalTersePrinterINSt7__cxx1112basic_stringIcSt11char_traitsIcESaIcEEEE5PrintERKS7_PSo
FNDA:0,_ZN7testing8internal21UniversalTersePrinterINSt7__cxx1112basic_stringIcSt11char_traitsIcESaIcEEEE5PrintERKS7_PSo
FN:1130,_ZN7testing8internal14UniversalPrintIiEEvRKT_PSo
FNDA:0,_ZN7testing8internal14UniversalPrintIiEEvRKT_PSo
FN:1130,_ZN7testing8internal14UniversalPrintImEEvRKT_PSo
FNDA:0,_ZN7testing8internal14UniversalPrintImEEvRKT_PSo
FN:1130,_ZN7testing8internal14UniversalPrintINSt7__cxx1112basic_stringIcSt11char_traitsIcESaIcEEEEEvRKT_PSo
FNDA:0,_ZN7testing8internal14UniversalPrintINSt7__cxx1112basic_stringIcSt11char_traitsIcESaIcEEEEEvRKT_PSo
FN:1170,_ZN7testing13PrintToStringIiEENSt7__cxx1112basic_stringIcSt11char_traitsIcESaIcEEERKT_
FNDA:0,_ZN7testing13PrintToStringIiEENSt7__cxx1112basic_stringIcSt11char_traitsIcESaIcEEERKT_
FN:1170,_ZN7testing13PrintToStringImEENSt7__cxx1112basic_stringIcSt11char_traitsIcESaIcEEERKT_
FNDA:0,_ZN7testing13PrintToStringImEENSt7__cxx1112basic_stringIcSt11char_traitsIcESaIcEEERKT_
FN:1170,_ZN7testing13PrintToStringINSt7__cxx1112basic_stringIcSt11char_traitsIcESaIcEEEEES6_RKT_
FNDA:0,_ZN7testing13PrintToStringINSt7__cxx1112basic_stringIcSt11char_traitsIcESaIcEEEEES6_RKT_
DA:244,0
DA:248,0
DA:249,0
DA:244,0
DA:248,0
DA:249,0
DA:348,0
DA:358,0
DA:359,0
DA:348,0
DA:358,0
DA:359,0
DA:379,0
DA:380,0
DA:379,0
DA:380,0
DA:379,0
DA:380,0
DA:379,0
DA:380,0
DA:459,0
DA:461,0
DA:459,0
DA:461,0
DA:459,0
DA:461,0
DA:459,0
DA:461,0
DA:486,0
DA:487,0
DA:488,0
DA:486,0
DA:487,0
DA:488,0
DA:682,0
DA:683,0
DA:684,0
DA:821,0
DA:830,0
DA:831,0
DA:821,0
DA:830,0
DA:831,0
DA:821,0
DA:830,0
DA:831,0
DA:1011,0
DA:1012,0
DA:1013,0
DA:1011,0
DA:1012,0
DA:1013,0
DA:1011,0
DA:1012,0
DA:1013,0
DA:1130,0
DA:1134,0
DA:1135,0
DA:1130,0
DA:1134,0
DA:1135,0
DA:1130,0
DA:1134,0
DA:1135,0
DA:1170,0
DA:1171,0
DA:1172,0
DA:1173,0
DA:1174,0
DA:1170,0
DA:1171,0
DA:1172,0
DA:1173,0
DA:1174,0
DA:1170,0
DA:1171,0
DA:1172,0
DA:1173,0
DA:1174,0
end_of_record
SF:/usr/include/c++/11/ext/new_allocator.h
FN:79,_ZN9__gnu_cxx13new_allocatorIcEC2Ev
FNDA:0,_ZN9__gnu_cxx13new_allocatorIcEC2Ev
FN:82,_ZN9__gnu_cxx13new_allocatorIcEC2ERKS1_
FNDA:0,_ZN9__gnu_cxx13new_allocatorIcEC2ERKS1_
FN:89,_ZN9__gnu_cxx13new_allocatorISt13_Rb_tree_nodeIiEED2Ev
FNDA:0,_ZN9__gnu_cxx13new_allocatorISt13_Rb_tree_nodeIiEED2Ev
FN:89,_ZN9__gnu_cxx13new_allocatorISt3setIiSt4lessIiESaIiEEED2Ev
FNDA:0,_ZN9__gnu_cxx13new_allocatorISt3setIiSt4lessIiESaIiEEED2Ev
FN:89,_ZN9__gnu_cxx13new_allocatorImED2Ev
FNDA:0,_ZN9__gnu_cxx13new_allocatorImED2Ev
FN:89,_ZN9__gnu_cxx13new_allocatorISt13_Rb_tree_nodeISt4pairIKNSt7__cxx1112basic_stringIcSt11char_traitsIcESaIcEEES2_IiiEEEED2Ev
FNDA:0,_ZN9__gnu_cxx13new_allocatorISt13_Rb_tree_nodeISt4pairIKNSt7__cxx1112basic_stringIcSt11char_traitsIcESaIcEEES2_IiiEEEED2Ev
FN:89,_ZN9__gnu_cxx13new_allocatorIcED2Ev
FNDA:0,_ZN9__gnu_cxx13new_allocatorIcED2Ev
FN:132,_ZN9__gnu_cxx13new_allocatorISt13_Rb_tree_nodeIiEE10deallocateEPS2_m
FNDA:0,_ZN9__gnu_cxx13new_allocatorISt13_Rb_tree_nodeIiEE10deallocateEPS2_m
FN:132,_ZN9__gnu_cxx13new_allocatorISt13_Rb_tree_nodeISt4pairIKNSt7__cxx1112basic_stringIcSt11char_traitsIcESaIcEEES2_IiiEEEE10deallocateEPSC_m
FNDA:0,_ZN9__gnu_cxx13new_allocatorISt13_Rb_tree_nodeISt4pairIKNSt7__cxx1112basic_stringIcSt11char_traitsIcESaIcEEES2_IiiEEEE10deallocateEPSC_m
FN:132,_ZN9__gnu_cxx13new_allocatorImE10deallocateEPmm
FNDA:0,_ZN9__gnu_cxx13new_allocatorImE10deallocateEPmm
FN:132,_ZN9__gnu_cxx13new_allocatorISt3setIiSt4lessIiESaIiEEE10deallocateEPS5_m
FNDA:0,_ZN9__gnu_cxx13new_allocatorISt3setIiSt4lessIiESaIiEEE10deallocateEPS5_m
FN:166,_ZN9__gnu_cxx13new_allocatorISt13_Rb_tree_nodeIiEE7destroyIiEEvPT_
FNDA:0,_ZN9__gnu_cxx13new_allocatorISt13_Rb_tree_nodeIiEE7destroyIiEEvPT_
FN:166,_ZN9__gnu_cxx13new_allocatorISt13_Rb_tree_nodeISt4pairIKNSt7__cxx1112basic_stringIcSt11char_traitsIcESaIcEEES2_IiiEEEE7destroyISB_EEvPT_
FNDA:0,_ZN9__gnu_cxx13new_allocatorISt13_Rb_tree_nodeISt4pairIKNSt7__cxx1112basic_stringIcSt11char_traitsIcESaIcEEES2_IiiEEEE7destroyISB_EEvPT_
DA:79,0
DA:82,0
DA:89,0
DA:89,0
DA:89,0
DA:89,0
DA:89,0
DA:132,0
DA:145,0
DA:150,0
DA:132,0
DA:145,0
DA:150,0
DA:132,0
DA:145,0
DA:150,0
DA:132,0
DA:145,0
DA:150,0
DA:166,0
DA:168,0
DA:166,0
DA:168,0
end_of_record
SF:/mnt/c/Users/Jeamh/CLionProjects/Examen1/pregunta-3/ext/googletest/googletest/include/gtest/gtest-assertion-result.h
FN:155,_ZN7testing15AssertionResultC2IbEERKT_PNSt9enable_ifIXntsrSt14is_convertibleIS2_S0_E5valueEvE4typeE
FNDA:14,_ZN7testing15AssertionResultC2IbEERKT_PNSt9enable_ifIXntsrSt14is_convertibleIS2_S0_E5valueEvE4typeE
FN:174,_ZNK7testing15AssertionResultcvbEv
FNDA:14,_ZNK7testing15AssertionResultcvbEv
FN:183,_ZNK7testing15AssertionResult7messageEv
FNDA:0,_ZNK7testing15AssertionResult7messageEv
FN:187,_ZNK7testing15AssertionResult15failure_messageEv
FNDA:0,_ZNK7testing15AssertionResult15failure_messageEv
DA:155,14
DA:161,14
DA:174,14
DA:183,0
DA:184,0
DA:187,0
end_of_record
