TN:
SF:/usr/include/c++/11/ext/type_traits.h
FN:152,_ZN9__gnu_cxx17__is_null_pointerIcEEbPT_
FNDA:0,_ZN9__gnu_cxx17__is_null_pointerIcEEbPT_
FN:152,_ZN9__gnu_cxx17__is_null_pointerIKcEEbPT_
FNDA:0,_ZN9__gnu_cxx17__is_null_pointerIKcEEbPT_
DA:152,0
DA:153,0
DA:152,0
DA:153,0
end_of_record
SF:/usr/include/c++/11/bits/move.h
FN:104,_ZSt4moveIRPNSt7__cxx1112basic_stringIcSt11char_traitsIcESaIcEEEEONSt16remove_referenceIT_E4typeEOS9_
FNDA:0,_ZSt4moveIRPNSt7__cxx1112basic_stringIcSt11char_traitsIcESaIcEEEEONSt16remove_referenceIT_E4typeEOS9_
FN:104,_ZSt4moveIRPNSt7__cxx1118basic_stringstreamIcSt11char_traitsIcESaIcEEEEONSt16remove_referenceIT_E4typeEOS9_
FNDA:61,_ZSt4moveIRPNSt7__cxx1118basic_stringstreamIcSt11char_traitsIcESaIcEEEEONSt16remove_referenceIT_E4typeEOS9_
FN:104,_ZSt4moveIRSaIcEEONSt16remove_referenceIT_E4typeEOS3_
FNDA:0,_ZSt4moveIRSaIcEEONSt16remove_referenceIT_E4typeEOS3_
DA:104,0
DA:105,0
DA:104,61
DA:105,61
DA:104,0
DA:105,0
end_of_record
SF:/usr/include/c++/11/bits/basic_string.h
FN:251,_ZNSt7__cxx1112basic_stringIcSt11char_traitsIcESaIcEE16_M_construct_auxIPcEEvT_S7_St12__false_type
FNDA:0,_ZNSt7__cxx1112basic_stringIcSt11char_traitsIcESaIcEE16_M_construct_auxIPcEEvT_S7_St12__false_type
FN:271,_ZNSt7__cxx1112basic_stringIcSt11char_traitsIcESaIcEE12_M_constructIPcEEvT_S7_
FNDA:0,_ZNSt7__cxx1112basic_stringIcSt11char_traitsIcESaIcEE12_M_constructIPcEEvT_S7_
DA:251,0
DA:255,0
DA:256,0
DA:271,0
DA:274,0
DA:275,0
end_of_record
SF:/usr/include/c++/11/ext/alloc_traits.h
FN:97,_ZN9__gnu_cxx14__alloc_traitsISaIcEcE17_S_select_on_copyERKS1_
FNDA:0,_ZN9__gnu_cxx14__alloc_traitsISaIcEcE17_S_select_on_copyERKS1_
DA:97,0
DA:98,0
end_of_record
SF:/mnt/c/Users/Jeamh/CLionProjects/Examen1/pregunta-4/ext/googletest/googletest/include/gtest/internal/gtest-port.h
FN:1060,_ZN7testing8internal8GTestLog9GetStreamEv
FNDA:0,_ZN7testing8internal8GTestLog9GetStreamEv
DA:1060,0
end_of_record
SF:/usr/include/c++/11/ext/new_allocator.h
FN:79,_ZN9__gnu_cxx13new_allocatorIcEC2Ev
FNDA:0,_ZN9__gnu_cxx13new_allocatorIcEC2Ev
FN:82,_ZN9__gnu_cxx13new_allocatorIcEC2ERKS1_
FNDA:0,_ZN9__gnu_cxx13new_allocatorIcEC2ERKS1_
FN:89,_ZN9__gnu_cxx13new_allocatorIcED2Ev
FNDA:0,_ZN9__gnu_cxx13new_allocatorIcED2Ev
DA:79,0
DA:82,0
DA:89,0
end_of_record
SF:/usr/include/c++/11/tuple
FN:124,_ZNSt10_Head_baseILm1ESt14default_deleteINSt7__cxx1118basic_stringstreamIcSt11char_traitsIcESaIcEEEELb1EE7_M_headERS8_
FNDA:61,_ZNSt10_Head_baseILm1ESt14default_deleteINSt7__cxx1118basic_stringstreamIcSt11char_traitsIcESaIcEEEELb1EE7_M_headERS8_
FN:124,_ZNSt10_Head_baseILm1ESt14default_deleteINSt7__cxx1112basic_stringIcSt11char_traitsIcESaIcEEEELb1EE7_M_headERS8_
FNDA:0,_ZNSt10_Head_baseILm1ESt14default_deleteINSt7__cxx1112basic_stringIcSt11char_traitsIcESaIcEEEELb1EE7_M_headERS8_
FN:233,_ZNSt10_Head_baseILm0EPNSt7__cxx1112basic_stringIcSt11char_traitsIcESaIcEEELb0EE7_M_headERS7_
FNDA:23,_ZNSt10_Head_baseILm0EPNSt7__cxx1112basic_stringIcSt11char_traitsIcESaIcEEELb0EE7_M_headERS7_
FN:233,_ZNSt10_Head_baseILm0EPNSt7__cxx1118basic_stringstreamIcSt11char_traitsIcESaIcEEELb0EE7_M_headERS7_
FNDA:122,_ZNSt10_Head_baseILm0EPNSt7__cxx1118basic_stringstreamIcSt11char_traitsIcESaIcEEELb0EE7_M_headERS7_
FN:236,_ZNSt10_Head_baseILm0EPNSt7__cxx1112basic_stringIcSt11char_traitsIcESaIcEEELb0EE7_M_headERKS7_
FNDA:0,_ZNSt10_Head_baseILm0EPNSt7__cxx1112basic_stringIcSt11char_traitsIcESaIcEEELb0EE7_M_headERKS7_
FN:268,_ZNSt11_Tuple_implILm0EJPNSt7__cxx1112basic_stringIcSt11char_traitsIcESaIcEEESt14default_deleteIS5_EEE7_M_headERS9_
FNDA:23,_ZNSt11_Tuple_implILm0EJPNSt7__cxx1112basic_stringIcSt11char_traitsIcESaIcEEESt14default_deleteIS5_EEE7_M_headERS9_
FN:268,_ZNSt11_Tuple_implILm0EJPNSt7__cxx1118basic_stringstreamIcSt11char_traitsIcESaIcEEESt14default_deleteIS5_EEE7_M_headERS9_
FNDA:122,_ZNSt11_Tuple_implILm0EJPNSt7__cxx1118basic_stringstreamIcSt11char_traitsIcESaIcEEESt14default_deleteIS5_EEE7_M_headERS9_
FN:271,_ZNSt11_Tuple_implILm0EJPNSt7__cxx1112basic_stringIcSt11char_traitsIcESaIcEEESt14default_deleteIS5_EEE7_M_headERKS9_
FNDA:0,_ZNSt11_Tuple_implILm0EJPNSt7__cxx1112basic_stringIcSt11char_traitsIcESaIcEEESt14default_deleteIS5_EEE7_M_headERKS9_
FN:424,_ZNSt11_Tuple_implILm1EJSt14default_deleteINSt7__cxx1118basic_stringstreamIcSt11char_traitsIcESaIcEEEEEE7_M_headERS8_
FNDA:61,_ZNSt11_Tuple_implILm1EJSt14default_deleteINSt7__cxx1118basic_stringstreamIcSt11char_traitsIcESaIcEEEEEE7_M_headERS8_
FN:424,_ZNSt11_Tuple_implILm1EJSt14default_deleteINSt7__cxx1112basic_stringIcSt11char_traitsIcESaIcEEEEEE7_M_headERS8_
FNDA:0,_ZNSt11_Tuple_implILm1EJSt14default_deleteINSt7__cxx1112basic_stringIcSt11char_traitsIcESaIcEEEEEE7_M_headERS8_
FN:1377,_ZSt12__get_helperILm1ESt14default_deleteINSt7__cxx1118basic_stringstreamIcSt11char_traitsIcESaIcEEEEJEERT0_RSt11_Tuple_implIXT_EJS8_DpT1_EE
FNDA:61,_ZSt12__get_helperILm1ESt14default_deleteINSt7__cxx1118basic_stringstreamIcSt11char_traitsIcESaIcEEEEJEERT0_RSt11_Tuple_implIXT_EJS8_DpT1_EE
FN:1377,_ZSt12__get_helperILm0EPNSt7__cxx1118basic_stringstreamIcSt11char_traitsIcESaIcEEEJSt14default_deleteIS5_EEERT0_RSt11_Tuple_implIXT_EJS9_DpT1_EE
FNDA:122,_ZSt12__get_helperILm0EPNSt7__cxx1118basic_stringstreamIcSt11char_traitsIcESaIcEEEJSt14default_deleteIS5_EEERT0_RSt11_Tuple_implIXT_EJS9_DpT1_EE
FN:1377,_ZSt12__get_helperILm0EPNSt7__cxx1112basic_stringIcSt11char_traitsIcESaIcEEEJSt14default_deleteIS5_EEERT0_RSt11_Tuple_implIXT_EJS9_DpT1_EE
FNDA:23,_ZSt12__get_helperILm0EPNSt7__cxx1112basic_stringIcSt11char_traitsIcESaIcEEEJSt14default_deleteIS5_EEERT0_RSt11_Tuple_implIXT_EJS9_DpT1_EE
FN:1377,_ZSt12__get_helperILm1ESt14default_deleteINSt7__cxx1112basic_stringIcSt11char_traitsIcESaIcEEEEJEERT0_RSt11_Tuple_implIXT_EJS8_DpT1_EE
FNDA:0,_ZSt12__get_helperILm1ESt14default_deleteINSt7__cxx1112basic_stringIcSt11char_traitsIcESaIcEEEEJEERT0_RSt11_Tuple_implIXT_EJS8_DpT1_EE
FN:1382,_ZSt12__get_helperILm0EPNSt7__cxx1112basic_stringIcSt11char_traitsIcESaIcEEEJSt14default_deleteIS5_EEERKT0_RKSt11_Tuple_implIXT_EJS9_DpT1_EE
FNDA:0,_ZSt12__get_helperILm0EPNSt7__cxx1112basic_stringIcSt11char_traitsIcESaIcEEEJSt14default_deleteIS5_EEERKT0_RKSt11_Tuple_implIXT_EJS9_DpT1_EE
FN:1393,_ZSt3getILm1EJPNSt7__cxx1118basic_stringstreamIcSt11char_traitsIcESaIcEEESt14default_deleteIS5_EEERNSt13tuple_elementIXT_ESt5tupleIJDpT0_EEE4typeERSD_
FNDA:61,_ZSt3getILm1EJPNSt7__cxx1118basic_stringstreamIcSt11char_traitsIcESaIcEEESt14default_deleteIS5_EEERNSt13tuple_elementIXT_ESt5tupleIJDpT0_EEE4typeERSD_
FN:1393,_ZSt3getILm1EJPNSt7__cxx1112basic_stringIcSt11char_traitsIcESaIcEEESt14default_deleteIS5_EEERNSt13tuple_elementIXT_ESt5tupleIJDpT0_EEE4typeERSD_
FNDA:0,_ZSt3getILm1EJPNSt7__cxx1112basic_stringIcSt11char_traitsIcESaIcEEESt14default_deleteIS5_EEERNSt13tuple_elementIXT_ESt5tupleIJDpT0_EEE4typeERSD_
FN:1393,_ZSt3getILm0EJPNSt7__cxx1112basic_stringIcSt11char_traitsIcESaIcEEESt14default_deleteIS5_EEERNSt13tuple_elementIXT_ESt5tupleIJDpT0_EEE4typeERSD_
FNDA:23,_ZSt3getILm0EJPNSt7__cxx1112basic_stringIcSt11char_traitsIcESaIcEEESt14default_deleteIS5_EEERNSt13tuple_elementIXT_ESt5tupleIJDpT0_EEE4typeERSD_
FN:1393,_ZSt3getILm0EJPNSt7__cxx1118basic_stringstreamIcSt11char_traitsIcESaIcEEESt14default_deleteIS5_EEERNSt13tuple_elementIXT_ESt5tupleIJDpT0_EEE4typeERSD_
FNDA:122,_ZSt3getILm0EJPNSt7__cxx1118basic_stringstreamIcSt11char_traitsIcESaIcEEESt14default_deleteIS5_EEERNSt13tuple_elementIXT_ESt5tupleIJDpT0_EEE4typeERSD_
FN:1399,_ZSt3getILm0EJPNSt7__cxx1112basic_stringIcSt11char_traitsIcESaIcEEESt14default_deleteIS5_EEERKNSt13tuple_elementIXT_ESt5tupleIJDpT0_EEE4typeERKSD_
FNDA:0,_ZSt3getILm0EJPNSt7__cxx1112basic_stringIcSt11char_traitsIcESaIcEEESt14default_deleteIS5_EEERKNSt13tuple_elementIXT_ESt5tupleIJDpT0_EEE4typeERKSD_
DA:124,61
DA:124,0
DA:233,23
DA:233,122
DA:236,0
DA:268,23
DA:268,122
DA:271,0
DA:424,61
DA:424,0
DA:1377,61
DA:1378,61
DA:1377,0
DA:1378,0
DA:1377,23
DA:1378,23
DA:1377,122
DA:1378,122
DA:1382,0
DA:1383,0
DA:1393,61
DA:1394,61
DA:1393,0
DA:1394,0
DA:1393,23
DA:1394,23
DA:1393,122
DA:1394,122
DA:1399,0
DA:1400,0
end_of_record
SF:/usr/include/c++/11/bits/stl_iterator_base_funcs.h
FN:98,_ZSt10__distanceIPcENSt15iterator_traitsIT_E15difference_typeES2_S2_St26random_access_iterator_tag
FNDA:0,_ZSt10__distanceIPcENSt15iterator_traitsIT_E15difference_typeES2_S2_St26random_access_iterator_tag
FN:98,_ZSt10__distanceIPKcENSt15iterator_traitsIT_E15difference_typeES3_S3_St26random_access_iterator_tag
FNDA:0,_ZSt10__distanceIPKcENSt15iterator_traitsIT_E15difference_typeES3_S3_St26random_access_iterator_tag
FN:138,_ZSt8distanceIPcENSt15iterator_traitsIT_E15difference_typeES2_S2_
FNDA:0,_ZSt8distanceIPcENSt15iterator_traitsIT_E15difference_typeES2_S2_
FN:138,_ZSt8distanceIPKcENSt15iterator_traitsIT_E15difference_typeES3_S3_
FNDA:0,_ZSt8distanceIPKcENSt15iterator_traitsIT_E15difference_typeES3_S3_
DA:98,0
DA:104,0
DA:98,0
DA:104,0
DA:138,0
DA:141,0
DA:142,0
DA:138,0
DA:141,0
DA:142,0
end_of_record
SF:/usr/include/c++/11/iostream
end_of_record
SF:/mnt/c/Users/Jeamh/CLionProjects/Examen1/pregunta-4/ext/googletest/googletest/include/gtest/internal/gtest-internal.h
FN:293,_ZN7testing8internal13FloatingPointIdEC2ERKd
FNDA:46,_ZN7testing8internal13FloatingPointIdEC2ERKd
FN:315,_ZNK7testing8internal13FloatingPointIdE13exponent_bitsEv
FNDA:46,_ZNK7testing8internal13FloatingPointIdE13exponent_bitsEv
FN:318,_ZNK7testing8internal13FloatingPointIdE13fraction_bitsEv
FNDA:0,_ZNK7testing8internal13FloatingPointIdE13fraction_bitsEv
FN:324,_ZNK7testing8internal13FloatingPointIdE6is_nanEv
FNDA:46,_ZNK7testing8internal13FloatingPointIdE6is_nanEv
FN:336,_ZNK7testing8internal13FloatingPointIdE12AlmostEqualsERKS2_
FNDA:23,_ZNK7testing8internal13FloatingPointIdE12AlmostEqualsERKS2_
FN:367,_ZN7testing8internal13FloatingPointIdE24SignAndMagnitudeToBiasedERKm
FNDA:46,_ZN7testing8internal13FloatingPointIdE24SignAndMagnitudeToBiasedERKm
FN:379,_ZN7testing8internal13FloatingPointIdE38DistanceBetweenSignAndMagnitudeNumbersERKmS4_
FNDA:23,_ZN7testing8internal13FloatingPointIdE38DistanceBetweenSignAndMagnitudeNumbersERKmS4_
FN:437,_ZN7testing8internal15TestFactoryBaseD2Ev
FNDA:9,_ZN7testing8internal15TestFactoryBaseD2Ev
FN:437,_ZN7testing8internal15TestFactoryBaseD0Ev
FNDA:0,_ZN7testing8internal15TestFactoryBaseD0Ev
FN:444,_ZN7testing8internal15TestFactoryBaseC2Ev
FNDA:9,_ZN7testing8internal15TestFactoryBaseC2Ev
FN:456,_ZN7testing8internal15TestFactoryImplI31Vector3DTest_OperadorNorma_TestE10CreateTestEv
FNDA:1,_ZN7testing8internal15TestFactoryImplI31Vector3DTest_OperadorNorma_TestE10CreateTestEv
FN:456,_ZN7testing8internal15TestFactoryImplI41Vector3DTest_OperadorProductoEscalar_TestE10CreateTestEv
FNDA:1,_ZN7testing8internal15TestFactoryImplI41Vector3DTest_OperadorProductoEscalar_TestE10CreateTestEv
FN:456,_ZN7testing8internal15TestFactoryImplI44Vector3DTest_OperadorProductoConEscalar_TestE10CreateTestEv
FNDA:1,_ZN7testing8internal15TestFactoryImplI44Vector3DTest_OperadorProductoConEscalar_TestE10CreateTestEv
FN:456,_ZN7testing8internal15TestFactoryImplI43Vector3DTest_OperadorProductoVectorial_TestE10CreateTestEv
FNDA:1,_ZN7testing8internal15TestFactoryImplI43Vector3DTest_OperadorProductoVectorial_TestE10CreateTestEv
FN:456,_ZN7testing8internal15TestFactoryImplI41Vector3DTest_OperadorRestaConEscalar_TestE10CreateTestEv
FNDA:1,_ZN7testing8internal15TestFactoryImplI41Vector3DTest_OperadorRestaConEscalar_TestE10CreateTestEv
FN:456,_ZN7testing8internal15TestFactoryImplI31Vector3DTest_OperadorResta_TestE10CreateTestEv
FNDA:1,_ZN7testing8internal15TestFactoryImplI31Vector3DTest_OperadorResta_TestE10CreateTestEv
FN:456,_ZN7testing8internal15TestFactoryImplI40Vector3DTest_OperadorSumaConEscalar_TestE10CreateTestEv
FNDA:1,_ZN7testing8internal15TestFactoryImplI40Vector3DTest_OperadorSumaConEscalar_TestE10CreateTestEv
FN:456,_ZN7testing8internal15TestFactoryImplI30Vector3DTest_OperadorSuma_TestE10CreateTestEv
FNDA:1,_ZN7testing8internal15TestFactoryImplI30Vector3DTest_OperadorSuma_TestE10CreateTestEv
FN:456,_ZN7testing8internal15TestFactoryImplI37Vector3DTest_ConstructorYGetters_TestE10CreateTestEv
FNDA:1,_ZN7testing8internal15TestFactoryImplI37Vector3DTest_ConstructorYGetters_TestE10CreateTestEv
FN:477,_ZN7testing8internal12CodeLocationC2ERKNSt7__cxx1112basic_stringIcSt11char_traitsIcESaIcEEEi
FNDA:9,_ZN7testing8internal12CodeLocationC2ERKNSt7__cxx1112basic_stringIcSt11char_traitsIcESaIcEEEi
FN:490,_ZN7testing8internal19GetNotDefaultOrNullEPFvvES2_
FNDA:36,_ZN7testing8internal19GetNotDefaultOrNullEPFvvES2_
FN:505,_ZN7testing8internal16SuiteApiResolverINS_4TestEE19GetSetUpCaseOrSuiteEPKci
FNDA:9,_ZN7testing8internal16SuiteApiResolverINS_4TestEE19GetSetUpCaseOrSuiteEPKci
FN:526,_ZN7testing8internal16SuiteApiResolverINS_4TestEE22GetTearDownCaseOrSuiteEPKci
FNDA:9,_ZN7testing8internal16SuiteApiResolverINS_4TestEE22GetTearDownCaseOrSuiteEPKci
DA:293,46
DA:315,46
DA:318,0
DA:324,46
DA:327,46
DA:336,23
DA:339,23
DA:341,23
DA:342,23
DA:367,46
DA:368,46
DA:370,12
DA:373,34
DA:379,23
DA:381,23
DA:382,23
DA:383,23
DA:437,0
DA:437,9
DA:444,9
DA:456,1
DA:456,1
DA:456,1
DA:456,1
DA:456,1
DA:456,1
DA:456,1
DA:456,1
DA:456,1
DA:477,9
DA:478,9
DA:490,36
DA:492,36
DA:505,9
DA:509,9
DA:511,9
DA:513,9
DA:516,0
DA:518,9
DA:526,9
DA:530,9
DA:532,9
DA:534,9
DA:537,0
DA:539,9
end_of_record
SF:/mnt/c/Users/Jeamh/CLionProjects/Examen1/pregunta-4/ext/googletest/googletest/include/gtest/gtest.h
FN:255,_ZN7testing4Test14SetUpTestSuiteEv
FNDA:0,_ZN7testing4Test14SetUpTestSuiteEv
FN:263,_ZN7testing4Test17TearDownTestSuiteEv
FNDA:0,_ZN7testing4Test17TearDownTestSuiteEv
FN:268,_ZN7testing4Test16TearDownTestCaseEv
FNDA:0,_ZN7testing4Test16TearDownTestCaseEv
FN:269,_ZN7testing4Test13SetUpTestCaseEv
FNDA:0,_ZN7testing4Test13SetUpTestCaseEv
FN:356,_ZN7testing4Test5SetupEv
FNDA:0,_ZN7testing4Test5SetupEv
FN:1566,_ZN7testing8internal24CmpHelperFloatingPointEQIdEENS_15AssertionResultEPKcS4_T_S5_
FNDA:23,_ZN7testing8internal24CmpHelperFloatingPointEQIdEENS_15AssertionResultEPKcS4_T_S5_
DA:255,0
DA:263,0
DA:268,0
DA:269,0
DA:356,0
DA:1566,23
DA:1569,23
DA:1571,23
DA:1572,23
DA:1575,0
DA:1576,0
DA:1577,0
DA:1579,0
DA:1580,0
DA:1581,0
DA:1585,0
DA:1586,0
end_of_record
SF:/usr/include/c++/11/bits/stl_iterator_base_types.h
FN:238,_ZSt19__iterator_categoryIPcENSt15iterator_traitsIT_E17iterator_categoryERKS2_
FNDA:0,_ZSt19__iterator_categoryIPcENSt15iterator_traitsIT_E17iterator_categoryERKS2_
FN:238,_ZSt19__iterator_categoryIPKcENSt15iterator_traitsIT_E17iterator_categoryERKS3_
FNDA:0,_ZSt19__iterator_categoryIPKcENSt15iterator_traitsIT_E17iterator_categoryERKS3_
DA:238,0
DA:239,0
DA:238,0
DA:239,0
end_of_record
SF:/usr/include/c++/11/bits/ios_base.h
FN:728,_ZNSt8ios_base9precisionEl
FNDA:0,_ZNSt8ios_base9precisionEl
DA:728,0
DA:730,0
DA:731,0
DA:732,0
end_of_record
SF:/usr/include/c++/11/bits/unique_ptr.h
FN:79,_ZNKSt14default_deleteINSt7__cxx1112basic_stringIcSt11char_traitsIcESaIcEEEEclEPS5_
FNDA:0,_ZNKSt14default_deleteINSt7__cxx1112basic_stringIcSt11char_traitsIcESaIcEEEEclEPS5_
FN:79,_ZNKSt14default_deleteINSt7__cxx1118basic_stringstreamIcSt11char_traitsIcESaIcEEEEclEPS5_
FNDA:61,_ZNKSt14default_deleteINSt7__cxx1118basic_stringstreamIcSt11char_traitsIcESaIcEEEEclEPS5_
FN:172,_ZNSt15__uniq_ptr_implINSt7__cxx1112basic_stringIcSt11char_traitsIcESaIcEEESt14default_deleteIS5_EE6_M_ptrEv
FNDA:23,_ZNSt15__uniq_ptr_implINSt7__cxx1112basic_stringIcSt11char_traitsIcESaIcEEESt14default_deleteIS5_EE6_M_ptrEv
FN:172,_ZNSt15__uniq_ptr_implINSt7__cxx1118basic_stringstreamIcSt11char_traitsIcESaIcEEESt14default_deleteIS5_EE6_M_ptrEv
FNDA:122,_ZNSt15__uniq_ptr_implINSt7__cxx1118basic_stringstreamIcSt11char_traitsIcESaIcEEESt14default_deleteIS5_EE6_M_ptrEv
FN:173,_ZNKSt15__uniq_ptr_implINSt7__cxx1112basic_stringIcSt11char_traitsIcESaIcEEESt14default_deleteIS5_EE6_M_ptrEv
FNDA:0,_ZNKSt15__uniq_ptr_implINSt7__cxx1112basic_stringIcSt11char_traitsIcESaIcEEESt14default_deleteIS5_EE6_M_ptrEv
FN:174,_ZNSt15__uniq_ptr_implINSt7__cxx1118basic_stringstreamIcSt11char_traitsIcESaIcEEESt14default_deleteIS5_EE10_M_deleterEv
FNDA:61,_ZNSt15__uniq_ptr_implINSt7__cxx1118basic_stringstreamIcSt11char_traitsIcESaIcEEESt14default_deleteIS5_EE10_M_deleterEv
FN:174,_ZNSt15__uniq_ptr_implINSt7__cxx1112basic_stringIcSt11char_traitsIcESaIcEEESt14default_deleteIS5_EE10_M_deleterEv
FNDA:0,_ZNSt15__uniq_ptr_implINSt7__cxx1112basic_stringIcSt11char_traitsIcESaIcEEESt14default_deleteIS5_EE10_M_deleterEv
FN:355,_ZNSt10unique_ptrINSt7__cxx1112basic_stringIcSt11char_traitsIcESaIcEEESt14default_deleteIS5_EED2Ev
FNDA:23,_ZNSt10unique_ptrINSt7__cxx1112basic_stringIcSt11char_traitsIcESaIcEEESt14default_deleteIS5_EED2Ev
FN:355,_ZNSt10unique_ptrINSt7__cxx1118basic_stringstreamIcSt11char_traitsIcESaIcEEESt14default_deleteIS5_EED2Ev
FNDA:61,_ZNSt10unique_ptrINSt7__cxx1118basic_stringstreamIcSt11char_traitsIcESaIcEEESt14default_deleteIS5_EED2Ev
FN:413,_ZNKSt10unique_ptrINSt7__cxx1112basic_stringIcSt11char_traitsIcESaIcEEESt14default_deleteIS5_EEptEv
FNDA:0,_ZNKSt10unique_ptrINSt7__cxx1112basic_stringIcSt11char_traitsIcESaIcEEESt14default_deleteIS5_EEptEv
FN:421,_ZNKSt10unique_ptrINSt7__cxx1112basic_stringIcSt11char_traitsIcESaIcEEESt14default_deleteIS5_EE3getEv
FNDA:0,_ZNKSt10unique_ptrINSt7__cxx1112basic_stringIcSt11char_traitsIcESaIcEEESt14default_deleteIS5_EE3getEv
FN:426,_ZNSt10unique_ptrINSt7__cxx1112basic_stringIcSt11char_traitsIcESaIcEEESt14default_deleteIS5_EE11get_deleterEv
FNDA:0,_ZNSt10unique_ptrINSt7__cxx1112basic_stringIcSt11char_traitsIcESaIcEEESt14default_deleteIS5_EE11get_deleterEv
FN:426,_ZNSt10unique_ptrINSt7__cxx1118basic_stringstreamIcSt11char_traitsIcESaIcEEESt14default_deleteIS5_EE11get_deleterEv
FNDA:61,_ZNSt10unique_ptrINSt7__cxx1118basic_stringstreamIcSt11char_traitsIcESaIcEEESt14default_deleteIS5_EE11get_deleterEv
FN:435,_ZNKSt10unique_ptrINSt7__cxx1112basic_stringIcSt11char_traitsIcESaIcEEESt14default_deleteIS5_EEcvbEv
FNDA:0,_ZNKSt10unique_ptrINSt7__cxx1112basic_stringIcSt11char_traitsIcESaIcEEESt14default_deleteIS5_EEcvbEv
FN:781,_ZStneINSt7__cxx1112basic_stringIcSt11char_traitsIcESaIcEEESt14default_deleteIS5_EEbRKSt10unique_ptrIT_T0_EDn
FNDA:0,_ZStneINSt7__cxx1112basic_stringIcSt11char_traitsIcESaIcEEESt14default_deleteIS5_EEbRKSt10unique_ptrIT_T0_EDn
DA:79,0
DA:85,0
DA:86,0
DA:79,61
DA:85,61
DA:86,61
DA:172,23
DA:172,122
DA:173,0
DA:174,61
DA:174,0
DA:355,23
DA:359,23
DA:360,23
DA:361,0
DA:362,23
DA:363,23
DA:355,61
DA:359,61
DA:360,61
DA:361,61
DA:362,61
DA:363,61
DA:413,0
DA:416,0
DA:421,0
DA:422,0
DA:426,0
DA:427,0
DA:426,61
DA:427,61
DA:435,0
DA:436,0
DA:781,0
DA:782,0
end_of_record
SF:/mnt/c/Users/Jeamh/CLionProjects/Examen1/pregunta-4/ext/googletest/googletest/include/gtest/gtest-assertion-result.h
FN:174,_ZNK7testing15AssertionResultcvbEv
FNDA:23,_ZNK7testing15AssertionResultcvbEv
FN:183,_ZNK7testing15AssertionResult7messageEv
FNDA:0,_ZNK7testing15AssertionResult7messageEv
FN:187,_ZNK7testing15AssertionResult15failure_messageEv
FNDA:0,_ZNK7testing15AssertionResult15failure_messageEv
DA:174,23
DA:183,0
DA:184,0
DA:187,0
end_of_record
SF:/usr/include/c++/11/bits/basic_string.tcc
FN:206,_ZNSt7__cxx1112basic_stringIcSt11char_traitsIcESaIcEE12_M_constructIPcEEvT_S7_St20forward_iterator_tag
FNDA:0,_ZNSt7__cxx1112basic_stringIcSt11char_traitsIcESaIcEE12_M_constructIPcEEvT_S7_St20forward_iterator_tag
FN:206,_ZNSt7__cxx1112basic_stringIcSt11char_traitsIcESaIcEE12_M_constructIPKcEEvT_S8_St20forward_iterator_tag
FNDA:0,_ZNSt7__cxx1112basic_stringIcSt11char_traitsIcESaIcEE12_M_constructIPKcEEvT_S8_St20forward_iterator_tag
DA:206,0
DA:211,0
DA:212,0
DA:215,0
DA:217,0
DA:219,0
DA:220,0
DA:225,0
DA:226,0
DA:228,0
DA:229,0
DA:232,0
DA:233,0
DA:206,0
DA:211,0
DA:212,0
DA:215,0
DA:217,0
DA:219,0
DA:220,0
DA:225,0
DA:226,0
DA:228,0
DA:229,0
DA:232,0
DA:233,0
end_of_record
SF:/mnt/c/Users/Jeamh/CLionProjects/Examen1/pregunta-4/src/test.cpp
FN:5,_ZN37Vector3DTest_ConstructorYGetters_TestC2Ev
FNDA:1,_ZN37Vector3DTest_ConstructorYGetters_TestC2Ev
FN:5,_ZN37Vector3DTest_ConstructorYGetters_Test8TestBodyEv
FNDA:1,_ZN37Vector3DTest_ConstructorYGetters_Test8TestBodyEv
FN:5,_ZN37Vector3DTest_ConstructorYGetters_TestD2Ev
FNDA:1,_ZN37Vector3DTest_ConstructorYGetters_TestD2Ev
FN:5,_ZN37Vector3DTest_ConstructorYGetters_TestD0Ev
FNDA:1,_ZN37Vector3DTest_ConstructorYGetters_TestD0Ev
FN:13,_ZN30Vector3DTest_OperadorSuma_TestC2Ev
FNDA:1,_ZN30Vector3DTest_OperadorSuma_TestC2Ev
FN:13,_ZN30Vector3DTest_OperadorSuma_Test8TestBodyEv
FNDA:1,_ZN30Vector3DTest_OperadorSuma_Test8TestBodyEv
FN:13,_ZN30Vector3DTest_OperadorSuma_TestD2Ev
FNDA:1,_ZN30Vector3DTest_OperadorSuma_TestD2Ev
FN:13,_ZN30Vector3DTest_OperadorSuma_TestD0Ev
FNDA:1,_ZN30Vector3DTest_OperadorSuma_TestD0Ev
FN:23,_ZN40Vector3DTest_OperadorSumaConEscalar_TestC2Ev
FNDA:1,_ZN40Vector3DTest_OperadorSumaConEscalar_TestC2Ev
FN:23,_ZN40Vector3DTest_OperadorSumaConEscalar_TestD0Ev
FNDA:1,_ZN40Vector3DTest_OperadorSumaConEscalar_TestD0Ev
FN:23,_ZN40Vector3DTest_OperadorSumaConEscalar_TestD2Ev
FNDA:1,_ZN40Vector3DTest_OperadorSumaConEscalar_TestD2Ev
FN:23,_ZN40Vector3DTest_OperadorSumaConEscalar_Test8TestBodyEv
FNDA:1,_ZN40Vector3DTest_OperadorSumaConEscalar_Test8TestBodyEv
FN:32,_ZN31Vector3DTest_OperadorResta_TestC2Ev
FNDA:1,_ZN31Vector3DTest_OperadorResta_TestC2Ev
FN:32,_ZN31Vector3DTest_OperadorResta_Test8TestBodyEv
FNDA:1,_ZN31Vector3DTest_OperadorResta_Test8TestBodyEv
FN:32,_ZN31Vector3DTest_OperadorResta_TestD0Ev
FNDA:1,_ZN31Vector3DTest_OperadorResta_TestD0Ev
FN:32,_ZN31Vector3DTest_OperadorResta_TestD2Ev
FNDA:1,_ZN31Vector3DTest_OperadorResta_TestD2Ev
FN:42,_ZN41Vector3DTest_OperadorRestaConEscalar_TestD0Ev
FNDA:1,_ZN41Vector3DTest_OperadorRestaConEscalar_TestD0Ev
FN:42,_ZN41Vector3DTest_OperadorRestaConEscalar_Test8TestBodyEv
FNDA:1,_ZN41Vector3DTest_OperadorRestaConEscalar_Test8TestBodyEv
FN:42,_ZN41Vector3DTest_OperadorRestaConEscalar_TestD2Ev
FNDA:1,_ZN41Vector3DTest_OperadorRestaConEscalar_TestD2Ev
FN:42,_ZN41Vector3DTest_OperadorRestaConEscalar_TestC2Ev
FNDA:1,_ZN41Vector3DTest_OperadorRestaConEscalar_TestC2Ev
FN:51,_ZN43Vector3DTest_OperadorProductoVectorial_TestD0Ev
FNDA:1,_ZN43Vector3DTest_OperadorProductoVectorial_TestD0Ev
FN:51,_ZN43Vector3DTest_OperadorProductoVectorial_TestD2Ev
FNDA:1,_ZN43Vector3DTest_OperadorProductoVectorial_TestD2Ev
FN:51,_ZN43Vector3DTest_OperadorProductoVectorial_TestC2Ev
FNDA:1,_ZN43Vector3DTest_OperadorProductoVectorial_TestC2Ev
FN:51,_ZN43Vector3DTest_OperadorProductoVectorial_Test8TestBodyEv
FNDA:1,_ZN43Vector3DTest_OperadorProductoVectorial_Test8TestBodyEv
FN:61,_ZN44Vector3DTest_OperadorProductoConEscalar_TestD2Ev
FNDA:1,_ZN44Vector3DTest_OperadorProductoConEscalar_TestD2Ev
FN:61,_ZN44Vector3DTest_OperadorProductoConEscalar_Test8TestBodyEv
FNDA:1,_ZN44Vector3DTest_OperadorProductoConEscalar_Test8TestBodyEv
FN:61,_ZN44Vector3DTest_OperadorProductoConEscalar_TestD0Ev
FNDA:1,_ZN44Vector3DTest_OperadorProductoConEscalar_TestD0Ev
FN:61,_ZN44Vector3DTest_OperadorProductoConEscalar_TestC2Ev
FNDA:1,_ZN44Vector3DTest_OperadorProductoConEscalar_TestC2Ev
FN:70,_ZN41Vector3DTest_OperadorProductoEscalar_Test8TestBodyEv
FNDA:1,_ZN41Vector3DTest_OperadorProductoEscalar_Test8TestBodyEv
FN:70,_ZN41Vector3DTest_OperadorProductoEscalar_TestD2Ev
FNDA:1,_ZN41Vector3DTest_OperadorProductoEscalar_TestD2Ev
FN:70,_ZN41Vector3DTest_OperadorProductoEscalar_TestD0Ev
FNDA:1,_ZN41Vector3DTest_OperadorProductoEscalar_TestD0Ev
FN:70,_ZN41Vector3DTest_OperadorProductoEscalar_TestC2Ev
FNDA:1,_ZN41Vector3DTest_OperadorProductoEscalar_TestC2Ev
FN:78,_ZN31Vector3DTest_OperadorNorma_TestD2Ev
FNDA:1,_ZN31Vector3DTest_OperadorNorma_TestD2Ev
FN:78,_ZN31Vector3DTest_OperadorNorma_Test8TestBodyEv
FNDA:1,_ZN31Vector3DTest_OperadorNorma_Test8TestBodyEv
FN:78,_ZN31Vector3DTest_OperadorNorma_TestD0Ev
FNDA:1,_ZN31Vector3DTest_OperadorNorma_TestD0Ev
FN:78,_ZN31Vector3DTest_OperadorNorma_TestC2Ev
FNDA:1,_ZN31Vector3DTest_OperadorNorma_TestC2Ev
DA:5,1
DA:5,1
DA:5,1
DA:5,1
DA:6,1
DA:7,1
DA:8,1
DA:9,1
DA:10,1
DA:13,1
DA:13,1
DA:13,1
DA:13,1
DA:14,1
DA:15,1
DA:16,1
DA:17,1
DA:18,1
DA:19,1
DA:20,1
DA:23,1
DA:23,1
DA:23,1
DA:23,1
DA:24,1
DA:25,1
DA:26,1
DA:27,1
DA:28,1
DA:29,1
DA:32,1
DA:32,1
DA:32,1
DA:32,1
DA:33,1
DA:34,1
DA:35,1
DA:36,1
DA:37,1
DA:38,1
DA:39,1
DA:42,1
DA:42,1
DA:42,1
DA:42,1
DA:43,1
DA:44,1
DA:45,1
DA:46,1
DA:47,1
DA:48,1
DA:51,1
DA:51,1
DA:51,1
DA:51,1
DA:52,1
DA:53,1
DA:54,1
DA:55,1
DA:56,1
DA:57,1
DA:58,1
DA:61,1
DA:61,1
DA:61,1
DA:61,1
DA:62,1
DA:63,1
DA:64,1
DA:65,1
DA:66,1
DA:67,1
DA:70,1
DA:70,1
DA:70,1
DA:70,1
DA:71,1
DA:72,1
DA:73,1
DA:74,1
DA:75,1
DA:78,1
DA:78,1
DA:78,1
DA:78,1
DA:79,1
DA:80,1
DA:81,1
DA:82,1
end_of_record
SF:/usr/include/c++/11/bits/char_traits.h
FN:393,_ZNSt11char_traitsIcE6lengthEPKc
FNDA:0,_ZNSt11char_traitsIcE6lengthEPKc
DA:393,0
DA:399,0
end_of_record
SF:/usr/include/c++/11/bits/alloc_traits.h
FN:562,_ZNSt16allocator_traitsISaIcEE37select_on_container_copy_constructionERKS0_
FNDA:0,_ZNSt16allocator_traitsISaIcEE37select_on_container_copy_constructionERKS0_
DA:562,0
DA:563,0
end_of_record
SF:/mnt/c/Users/Jeamh/CLionProjects/Examen1/pregunta-4/ext/googletest/googletest/include/gtest/gtest-message.h
end_of_record
TN:
SF:/mnt/c/Users/Jeamh/CLionProjects/Examen1/pregunta-4/src/Vector3D.cpp
FN:4,_ZN8Vector3DC2Eddd
FNDA:19,_ZN8Vector3DC2Eddd
FN:7,_ZNK8Vector3D4getXEv
FNDA:12,_ZNK8Vector3D4getXEv
FN:11,_ZNK8Vector3D4getYEv
FNDA:12,_ZNK8Vector3D4getYEv
FN:15,_ZNK8Vector3D4getZEv
FNDA:12,_ZNK8Vector3D4getZEv
FN:20,_ZNK8Vector3DplERKS_
FNDA:1,_ZNK8Vector3DplERKS_
FN:25,_ZNK8Vector3DplEd
FNDA:1,_ZNK8Vector3DplEd
FN:30,_ZNK8Vector3DmiERKS_
FNDA:1,_ZNK8Vector3DmiERKS_
FN:35,_ZNK8Vector3DmiEd
FNDA:1,_ZNK8Vector3DmiEd
FN:41,_ZNK8Vector3DmlERKS_
FNDA:1,_ZNK8Vector3DmlERKS_
FN:48,_ZNK8Vector3DmlEd
FNDA:1,_ZNK8Vector3DmlEd
FN:53,_ZNK8Vector3DrmERKS_
FNDA:1,_ZNK8Vector3DrmERKS_
FN:58,_ZNK8Vector3DadEv
FNDA:1,_ZNK8Vector3DadEv
DA:4,19
DA:7,12
DA:8,12
DA:11,12
DA:12,12
DA:15,12
DA:16,12
DA:20,1
DA:21,1
DA:25,1
DA:26,1
DA:30,1
DA:31,1
DA:35,1
DA:36,1
DA:41,1
DA:42,1
DA:43,1
DA:44,3
DA:48,1
DA:49,1
DA:53,1
DA:54,1
DA:58,1
DA:59,1
end_of_record
